ARM GAS  C:\Users\robin\AppData\Local\Temp\ccXOp84u.s 			page 1


   1              		.syntax unified
   2              		.cpu cortex-m3
   3              		.fpu softvfp
   4              		.eabi_attribute 20, 1
   5              		.eabi_attribute 21, 1
   6              		.eabi_attribute 23, 3
   7              		.eabi_attribute 24, 1
   8              		.eabi_attribute 25, 1
   9              		.eabi_attribute 26, 1
  10              		.eabi_attribute 30, 1
  11              		.eabi_attribute 34, 1
  12              		.eabi_attribute 18, 4
  13              		.thumb
  14              		.syntax unified
  15              		.file	"main.c"
  16              		.text
  17              	.Ltext0:
  18              		.cfi_sections	.debug_frame
  19              		.syntax unified
  20              		.global _printf_float
  21              		.thumb
  22              		.syntax unified
  23              		.section	.text.RxIsr,"ax",%progbits
  24              		.align	2
  25              		.global	RxIsr
  26              		.thumb
  27              		.thumb_func
  28              		.type	RxIsr, %function
  29              	RxIsr:
  30              	.LFB64:
  31              		.file 1 "main.c"
   1:main.c        **** #include <math.h>
   2:main.c        **** #include <stdlib.h>
   3:main.c        **** #include "project.h"
   4:main.c        **** #include <stdio.h>
   5:main.c        **** #include "common.h"
   6:main.c        **** 
   7:main.c        **** #if defined (__GNUC__)
   8:main.c        ****     asm (".global _printf_float");
   9:main.c        **** #endif
  10:main.c        **** 
  11:main.c        **** 
  12:main.c        **** #define PI_DOS (3.14159 * 2)
  13:main.c        **** 
  14:main.c        **** #define MUESTRAS 4000
  15:main.c        **** 
  16:main.c        **** #define SENO 0
  17:main.c        **** #define CUADRADA 1
  18:main.c        **** #define SIERRA 2
  19:main.c        **** #define TRIANGULAR 3
  20:main.c        **** 
  21:main.c        **** char op;
  22:main.c        **** uint8 signal [MUESTRAS];
  23:main.c        **** uint8 type = SENO;
  24:main.c        **** uint8 amp = 127;
  25:main.c        **** uint16 i = 0;
  26:main.c        **** uint8 j = 0;
ARM GAS  C:\Users\robin\AppData\Local\Temp\ccXOp84u.s 			page 2


  27:main.c        **** 
  28:main.c        **** float incrementarFase = PI_DOS/MUESTRAS;
  29:main.c        **** 
  30:main.c        **** uint8 errorStatus = 0u;
  31:main.c        **** CY_ISR(RxIsr)
  32:main.c        **** {
  32              		.loc 1 32 0
  33              		.cfi_startproc
  34              		@ args = 0, pretend = 0, frame = 0
  35              		@ frame_needed = 0, uses_anonymous_args = 0
  36 0000 10B5     		push	{r4, lr}
  37              		.cfi_def_cfa_offset 8
  38              		.cfi_offset 4, -8
  39              		.cfi_offset 14, -4
  40              	.L13:
  33:main.c        ****     uint8 rxStatus;         
  34:main.c        ****     uint8 rxData;           
  35:main.c        ****     
  36:main.c        ****     do
  37:main.c        ****     {
  38:main.c        ****         /* Read receiver status register */
  39:main.c        ****         rxStatus = UART_RXSTATUS_REG;
  41              		.loc 1 39 0
  42 0002 624B     		ldr	r3, .L15
  43 0004 1B78     		ldrb	r3, [r3]	@ zero_extendqisi2
  44 0006 DBB2     		uxtb	r3, r3
  45              	.LVL0:
  40:main.c        **** 
  41:main.c        ****         if((rxStatus & (UART_RX_STS_BREAK      | UART_RX_STS_PAR_ERROR |
  46              		.loc 1 41 0
  47 0008 13F01E0F 		tst	r3, #30
  48 000c 05D0     		beq	.L2
  42:main.c        ****                         UART_RX_STS_STOP_ERROR | UART_RX_STS_OVERRUN)) != 0u)
  43:main.c        ****         {
  44:main.c        ****             /* ERROR handling. */
  45:main.c        ****             errorStatus |= rxStatus & ( UART_RX_STS_BREAK      | UART_RX_STS_PAR_ERROR | 
  49              		.loc 1 45 0
  50 000e 6048     		ldr	r0, .L15+4
  51 0010 03F01E02 		and	r2, r3, #30
  52 0014 0178     		ldrb	r1, [r0]	@ zero_extendqisi2
  53 0016 0A43     		orrs	r2, r2, r1
  54 0018 0270     		strb	r2, [r0]
  55              	.L2:
  56 001a 03F02003 		and	r3, r3, #32
  57              	.LVL1:
  46:main.c        ****                                         UART_RX_STS_STOP_ERROR | UART_RX_STS_OVERRUN);
  47:main.c        ****         }
  48:main.c        ****         
  49:main.c        ****         if((rxStatus & UART_RX_STS_FIFO_NOTEMPTY) != 0u)
  58              		.loc 1 49 0
  59 001e 03F0FF04 		and	r4, r3, #255
  60 0022 002B     		cmp	r3, #0
  61 0024 00F0AD80 		beq	.L3
  50:main.c        ****         {
  51:main.c        ****             /* Read data from the RX data register */
  52:main.c        ****             rxData = UART_RXDATA_REG;
  62              		.loc 1 52 0
ARM GAS  C:\Users\robin\AppData\Local\Temp\ccXOp84u.s 			page 3


  63 0028 5A4B     		ldr	r3, .L15+8
  64 002a 1B78     		ldrb	r3, [r3]	@ zero_extendqisi2
  65 002c DBB2     		uxtb	r3, r3
  66              	.LVL2:
  53:main.c        ****             if(errorStatus == 0u)
  67              		.loc 1 53 0
  68 002e 584A     		ldr	r2, .L15+4
  69 0030 1278     		ldrb	r2, [r2]	@ zero_extendqisi2
  70 0032 002A     		cmp	r2, #0
  71 0034 40F0A580 		bne	.L3
  54:main.c        ****             {
  55:main.c        ****                 /* Send data backward */
  56:main.c        ****                 UART_TXDATA_REG = rxData;
  72              		.loc 1 56 0
  73 0038 574A     		ldr	r2, .L15+12
  74 003a 1370     		strb	r3, [r2]
  57:main.c        **** 
  58:main.c        ****                 switch(rxData)
  75              		.loc 1 58 0
  76 003c 413B     		subs	r3, r3, #65
  77              	.LVL3:
  78 003e 392B     		cmp	r3, #57
  79 0040 00F29280 		bhi	.L4
  80 0044 DFE803F0 		tbb	[pc, r3]
  81              	.LVL4:
  82              	.L6:
  83 0048 1D       		.byte	(.L5-.L6)/2
  84 0049 90       		.byte	(.L4-.L6)/2
  85 004a 90       		.byte	(.L4-.L6)/2
  86 004b 90       		.byte	(.L4-.L6)/2
  87 004c 90       		.byte	(.L4-.L6)/2
  88 004d 90       		.byte	(.L4-.L6)/2
  89 004e 90       		.byte	(.L4-.L6)/2
  90 004f 90       		.byte	(.L4-.L6)/2
  91 0050 90       		.byte	(.L4-.L6)/2
  92 0051 90       		.byte	(.L4-.L6)/2
  93 0052 90       		.byte	(.L4-.L6)/2
  94 0053 90       		.byte	(.L4-.L6)/2
  95 0054 90       		.byte	(.L4-.L6)/2
  96 0055 90       		.byte	(.L4-.L6)/2
  97 0056 90       		.byte	(.L4-.L6)/2
  98 0057 90       		.byte	(.L4-.L6)/2
  99 0058 90       		.byte	(.L4-.L6)/2
 100 0059 90       		.byte	(.L4-.L6)/2
 101 005a 41       		.byte	(.L7-.L6)/2
 102 005b 76       		.byte	(.L8-.L6)/2
 103 005c 90       		.byte	(.L4-.L6)/2
 104 005d 90       		.byte	(.L4-.L6)/2
 105 005e 90       		.byte	(.L4-.L6)/2
 106 005f 5F       		.byte	(.L9-.L6)/2
 107 0060 90       		.byte	(.L4-.L6)/2
 108 0061 2F       		.byte	(.L10-.L6)/2
 109 0062 90       		.byte	(.L4-.L6)/2
 110 0063 90       		.byte	(.L4-.L6)/2
 111 0064 90       		.byte	(.L4-.L6)/2
 112 0065 90       		.byte	(.L4-.L6)/2
 113 0066 90       		.byte	(.L4-.L6)/2
ARM GAS  C:\Users\robin\AppData\Local\Temp\ccXOp84u.s 			page 4


 114 0067 90       		.byte	(.L4-.L6)/2
 115 0068 1D       		.byte	(.L5-.L6)/2
 116 0069 90       		.byte	(.L4-.L6)/2
 117 006a 90       		.byte	(.L4-.L6)/2
 118 006b 90       		.byte	(.L4-.L6)/2
 119 006c 90       		.byte	(.L4-.L6)/2
 120 006d 90       		.byte	(.L4-.L6)/2
 121 006e 90       		.byte	(.L4-.L6)/2
 122 006f 90       		.byte	(.L4-.L6)/2
 123 0070 90       		.byte	(.L4-.L6)/2
 124 0071 90       		.byte	(.L4-.L6)/2
 125 0072 90       		.byte	(.L4-.L6)/2
 126 0073 90       		.byte	(.L4-.L6)/2
 127 0074 90       		.byte	(.L4-.L6)/2
 128 0075 90       		.byte	(.L4-.L6)/2
 129 0076 90       		.byte	(.L4-.L6)/2
 130 0077 90       		.byte	(.L4-.L6)/2
 131 0078 90       		.byte	(.L4-.L6)/2
 132 0079 90       		.byte	(.L4-.L6)/2
 133 007a 41       		.byte	(.L7-.L6)/2
 134 007b 76       		.byte	(.L8-.L6)/2
 135 007c 90       		.byte	(.L4-.L6)/2
 136 007d 90       		.byte	(.L4-.L6)/2
 137 007e 90       		.byte	(.L4-.L6)/2
 138 007f 5F       		.byte	(.L9-.L6)/2
 139 0080 90       		.byte	(.L4-.L6)/2
 140 0081 2F       		.byte	(.L10-.L6)/2
 141              		.p2align 1
 142              	.L5:
  59:main.c        ****                 {
  60:main.c        ****                     case 'a':
  61:main.c        ****                     case 'A':
  62:main.c        ****                         amp += 5;
 143              		.loc 1 62 0
 144 0082 464A     		ldr	r2, .L15+16
 145 0084 1378     		ldrb	r3, [r2]	@ zero_extendqisi2
 146 0086 0533     		adds	r3, r3, #5
 147 0088 1370     		strb	r3, [r2]
 148              	.LVL5:
  63:main.c        ****                         UART_PutString("Amplitud aumentada\r\n");
 149              		.loc 1 63 0
 150 008a 4548     		ldr	r0, .L15+20
 151 008c FFF7FEFF 		bl	UART_PutString
 152              	.LVL6:
  64:main.c        ****                         Pantalla_ClearDisplay();
 153              		.loc 1 64 0
 154 0090 0120     		movs	r0, #1
 155 0092 FFF7FEFF 		bl	Pantalla_WriteControl
 156              	.LVL7:
  65:main.c        ****                         Pantalla_Position(0u, 0u);                            
 157              		.loc 1 65 0
 158 0096 0021     		movs	r1, #0
 159 0098 0846     		mov	r0, r1
 160 009a FFF7FEFF 		bl	Pantalla_Position
 161              	.LVL8:
  66:main.c        ****                         Pantalla_PrintString("Amplitud aumentada");
 162              		.loc 1 66 0
ARM GAS  C:\Users\robin\AppData\Local\Temp\ccXOp84u.s 			page 5


 163 009e 4148     		ldr	r0, .L15+24
 164 00a0 FFF7FEFF 		bl	Pantalla_PrintString
 165              	.LVL9:
  67:main.c        ****                         
  68:main.c        ****                         break;
 166              		.loc 1 68 0
 167 00a4 6DE0     		b	.L3
 168              	.LVL10:
 169              	.L10:
  69:main.c        ****                     case 'z':
  70:main.c        ****                     case 'Z':
  71:main.c        ****                         amp -= 5;
 170              		.loc 1 71 0
 171 00a6 3D4A     		ldr	r2, .L15+16
 172 00a8 1378     		ldrb	r3, [r2]	@ zero_extendqisi2
 173 00aa 053B     		subs	r3, r3, #5
 174 00ac 1370     		strb	r3, [r2]
 175              	.LVL11:
  72:main.c        ****                         UART_PutString("Amplitud decrementada\r\n");
 176              		.loc 1 72 0
 177 00ae 3E48     		ldr	r0, .L15+28
 178 00b0 FFF7FEFF 		bl	UART_PutString
 179              	.LVL12:
  73:main.c        ****                         Pantalla_ClearDisplay();
 180              		.loc 1 73 0
 181 00b4 0120     		movs	r0, #1
 182 00b6 FFF7FEFF 		bl	Pantalla_WriteControl
 183              	.LVL13:
  74:main.c        ****                         Pantalla_Position(0u, 0u);                            
 184              		.loc 1 74 0
 185 00ba 0021     		movs	r1, #0
 186 00bc 0846     		mov	r0, r1
 187 00be FFF7FEFF 		bl	Pantalla_Position
 188              	.LVL14:
  75:main.c        ****                         Pantalla_PrintString("Amplitud decrementada");                    
 189              		.loc 1 75 0
 190 00c2 3A48     		ldr	r0, .L15+32
 191 00c4 FFF7FEFF 		bl	Pantalla_PrintString
 192              	.LVL15:
  76:main.c        ****                         break;
 193              		.loc 1 76 0
 194 00c8 5BE0     		b	.L3
 195              	.LVL16:
 196              	.L7:
  77:main.c        ****                     case 's':
  78:main.c        ****                     case 'S':
  79:main.c        ****                         if ( ((Clock_1_GetDividerRegister()+1)/2) >=1 )
 197              		.loc 1 79 0
 198 00ca FFF7FEFF 		bl	Clock_1_GetDividerRegister
 199              	.LVL17:
 200 00ce 0130     		adds	r0, r0, #1
 201 00d0 0128     		cmp	r0, #1
 202 00d2 0ADD     		ble	.L11
  80:main.c        ****                         Clock_1_SetDividerValue((Clock_1_GetDividerRegister()+1)/2);
 203              		.loc 1 80 0
 204 00d4 FFF7FEFF 		bl	Clock_1_GetDividerRegister
 205              	.LVL18:
ARM GAS  C:\Users\robin\AppData\Local\Temp\ccXOp84u.s 			page 6


 206 00d8 0130     		adds	r0, r0, #1
 207 00da 00EBD070 		add	r0, r0, r0, lsr #31
 208 00de 4010     		asrs	r0, r0, #1
 209 00e0 0138     		subs	r0, r0, #1
 210 00e2 0121     		movs	r1, #1
 211 00e4 80B2     		uxth	r0, r0
 212 00e6 FFF7FEFF 		bl	Clock_1_SetDividerRegister
 213              	.LVL19:
 214              	.L11:
  81:main.c        ****                         UART_PutString("Frecuencia aumentada\r\n");
 215              		.loc 1 81 0
 216 00ea 3148     		ldr	r0, .L15+36
 217 00ec FFF7FEFF 		bl	UART_PutString
 218              	.LVL20:
  82:main.c        ****                         Pantalla_ClearDisplay();
 219              		.loc 1 82 0
 220 00f0 0120     		movs	r0, #1
 221 00f2 FFF7FEFF 		bl	Pantalla_WriteControl
 222              	.LVL21:
  83:main.c        ****                         Pantalla_Position(0u, 0u);                            
 223              		.loc 1 83 0
 224 00f6 0021     		movs	r1, #0
 225 00f8 0846     		mov	r0, r1
 226 00fa FFF7FEFF 		bl	Pantalla_Position
 227              	.LVL22:
  84:main.c        ****                         Pantalla_PrintString("Frecuencia aumentada");
 228              		.loc 1 84 0
 229 00fe 2D48     		ldr	r0, .L15+40
 230 0100 FFF7FEFF 		bl	Pantalla_PrintString
 231              	.LVL23:
  85:main.c        ****                         
  86:main.c        ****                         break;
 232              		.loc 1 86 0
 233 0104 3DE0     		b	.L3
 234              	.LVL24:
 235              	.L9:
  87:main.c        ****                     case 'x':
  88:main.c        ****                     case 'X':                        
  89:main.c        ****                         Clock_1_SetDividerValue((Clock_1_GetDividerRegister()+1)*2);               
 236              		.loc 1 89 0
 237 0106 FFF7FEFF 		bl	Clock_1_GetDividerRegister
 238              	.LVL25:
 239 010a 0130     		adds	r0, r0, #1
 240 010c 4000     		lsls	r0, r0, #1
 241 010e 0138     		subs	r0, r0, #1
 242 0110 0121     		movs	r1, #1
 243 0112 80B2     		uxth	r0, r0
 244 0114 FFF7FEFF 		bl	Clock_1_SetDividerRegister
 245              	.LVL26:
  90:main.c        ****                         UART_PutString("Frecuencia decrementada\r\n");
 246              		.loc 1 90 0
 247 0118 2748     		ldr	r0, .L15+44
 248 011a FFF7FEFF 		bl	UART_PutString
 249              	.LVL27:
  91:main.c        ****                         Pantalla_ClearDisplay();
 250              		.loc 1 91 0
 251 011e 0120     		movs	r0, #1
ARM GAS  C:\Users\robin\AppData\Local\Temp\ccXOp84u.s 			page 7


 252 0120 FFF7FEFF 		bl	Pantalla_WriteControl
 253              	.LVL28:
  92:main.c        ****                         Pantalla_Position(0u, 0u);                            
 254              		.loc 1 92 0
 255 0124 0021     		movs	r1, #0
 256 0126 0846     		mov	r0, r1
 257 0128 FFF7FEFF 		bl	Pantalla_Position
 258              	.LVL29:
  93:main.c        ****                         Pantalla_PrintString("Frecuencia decrementada");
 259              		.loc 1 93 0
 260 012c 2348     		ldr	r0, .L15+48
 261 012e FFF7FEFF 		bl	Pantalla_PrintString
 262              	.LVL30:
  94:main.c        ****                         
  95:main.c        ****                         break;
 263              		.loc 1 95 0
 264 0132 26E0     		b	.L3
 265              	.LVL31:
 266              	.L8:
  96:main.c        ****                     case 't':
  97:main.c        ****                     case 'T':
  98:main.c        ****                         type = (type+1)%4;
 267              		.loc 1 98 0
 268 0134 164B     		ldr	r3, .L15+4
 269 0136 5B78     		ldrb	r3, [r3, #1]	@ zero_extendqisi2
 270 0138 0133     		adds	r3, r3, #1
 271 013a 214A     		ldr	r2, .L15+52
 272 013c 1340     		ands	r3, r3, r2
 273 013e 03D5     		bpl	.L12
 274 0140 013B     		subs	r3, r3, #1
 275 0142 63F00303 		orn	r3, r3, #3
 276 0146 0133     		adds	r3, r3, #1
 277              	.L12:
 278 0148 114A     		ldr	r2, .L15+4
 279 014a 5370     		strb	r3, [r2, #1]
  99:main.c        ****                         UART_PutString("Tipo de onda cambiado\r\n");
 280              		.loc 1 99 0
 281 014c 1D48     		ldr	r0, .L15+56
 282 014e FFF7FEFF 		bl	UART_PutString
 283              	.LVL32:
 100:main.c        ****                         Pantalla_ClearDisplay();
 284              		.loc 1 100 0
 285 0152 0120     		movs	r0, #1
 286 0154 FFF7FEFF 		bl	Pantalla_WriteControl
 287              	.LVL33:
 101:main.c        ****                         Pantalla_Position(0u, 0u);                            
 288              		.loc 1 101 0
 289 0158 0021     		movs	r1, #0
 290 015a 0846     		mov	r0, r1
 291 015c FFF7FEFF 		bl	Pantalla_Position
 292              	.LVL34:
 102:main.c        ****                         Pantalla_PrintString("Tipo de onda cambiado");
 293              		.loc 1 102 0
 294 0160 1948     		ldr	r0, .L15+60
 295 0162 FFF7FEFF 		bl	Pantalla_PrintString
 296              	.LVL35:
 103:main.c        ****                         break;
ARM GAS  C:\Users\robin\AppData\Local\Temp\ccXOp84u.s 			page 8


 297              		.loc 1 103 0
 298 0166 0CE0     		b	.L3
 299              	.LVL36:
 300              	.L4:
 104:main.c        ****                     default:
 105:main.c        ****                         UART_PutString("Comando desconocido\r\n");
 301              		.loc 1 105 0
 302 0168 1848     		ldr	r0, .L15+64
 303 016a FFF7FEFF 		bl	UART_PutString
 304              	.LVL37:
 106:main.c        ****                         
 107:main.c        ****                         Pantalla_ClearDisplay();
 305              		.loc 1 107 0
 306 016e 0120     		movs	r0, #1
 307 0170 FFF7FEFF 		bl	Pantalla_WriteControl
 308              	.LVL38:
 108:main.c        ****                         Pantalla_Position(0u, 0u);                            
 309              		.loc 1 108 0
 310 0174 0021     		movs	r1, #0
 311 0176 0846     		mov	r0, r1
 312 0178 FFF7FEFF 		bl	Pantalla_Position
 313              	.LVL39:
 109:main.c        ****                         Pantalla_PrintString("Comando desconocido");
 314              		.loc 1 109 0
 315 017c 1448     		ldr	r0, .L15+68
 316 017e FFF7FEFF 		bl	Pantalla_PrintString
 317              	.LVL40:
 318              	.L3:
 110:main.c        ****                         break;
 111:main.c        ****                 }
 112:main.c        ****                 
 113:main.c        ****             }
 114:main.c        ****         }
 115:main.c        ****     }while((rxStatus & UART_RX_STS_FIFO_NOTEMPTY) != 0u);
 319              		.loc 1 115 0
 320 0182 002C     		cmp	r4, #0
 321 0184 7FF43DAF 		bne	.L13
 116:main.c        **** 
 117:main.c        **** }
 322              		.loc 1 117 0
 323 0188 10BD     		pop	{r4, pc}
 324              	.L16:
 325 018a 00BF     		.align	2
 326              	.L15:
 327 018c 68640040 		.word	1073767528
 328 0190 00000000 		.word	.LANCHOR0
 329 0194 48650040 		.word	1073767752
 330 0198 4A650040 		.word	1073767754
 331 019c 00000000 		.word	.LANCHOR1
 332 01a0 00000000 		.word	.LC0
 333 01a4 18000000 		.word	.LC1
 334 01a8 2C000000 		.word	.LC2
 335 01ac 44000000 		.word	.LC3
 336 01b0 5C000000 		.word	.LC4
 337 01b4 74000000 		.word	.LC5
 338 01b8 8C000000 		.word	.LC6
 339 01bc A8000000 		.word	.LC7
ARM GAS  C:\Users\robin\AppData\Local\Temp\ccXOp84u.s 			page 9


 340 01c0 03000080 		.word	-2147483645
 341 01c4 C0000000 		.word	.LC8
 342 01c8 D8000000 		.word	.LC9
 343 01cc F0000000 		.word	.LC10
 344 01d0 08010000 		.word	.LC11
 345              		.cfi_endproc
 346              	.LFE64:
 347              		.size	RxIsr, .-RxIsr
 348              		.global	__aeabi_i2d
 349              		.global	__aeabi_i2f
 350              		.global	__aeabi_fmul
 351              		.global	__aeabi_f2d
 352              		.global	__aeabi_dmul
 353              		.global	__aeabi_dadd
 354              		.global	__aeabi_d2uiz
 355              		.global	__aeabi_dcmpge
 356              		.global	__aeabi_f2uiz
 357              		.section	.text.main,"ax",%progbits
 358              		.align	2
 359              		.global	main
 360              		.thumb
 361              		.thumb_func
 362              		.type	main, %function
 363              	main:
 364              	.LFB65:
 118:main.c        **** 
 119:main.c        **** int main(void)
 120:main.c        **** {
 365              		.loc 1 120 0
 366              		.cfi_startproc
 367              		@ Volatile: function does not return.
 368              		@ args = 0, pretend = 0, frame = 0
 369              		@ frame_needed = 0, uses_anonymous_args = 0
 370 0000 80B5     		push	{r7, lr}
 371              		.cfi_def_cfa_offset 8
 372              		.cfi_offset 7, -8
 373              		.cfi_offset 14, -4
 121:main.c        **** 
 122:main.c        **** 
 123:main.c        ****     #if(INTERRUPT_CODE_ENABLED == ENABLED)
 124:main.c        ****     UART_isr_StartEx(RxIsr);
 374              		.loc 1 124 0
 375 0002 5E48     		ldr	r0, .L39
 376 0004 FFF7FEFF 		bl	UART_isr_StartEx
 377              	.LVL41:
 125:main.c        ****     #endif /* INTERRUPT_CODE_ENABLED == ENABLED */
 126:main.c        ****         
 127:main.c        ****     CyGlobalIntEnable;      /* Enable global interrupts. */
 378              		.loc 1 127 0
 379              		.syntax unified
 380              	@ 127 "main.c" 1
 381 0008 62B6     		CPSIE   i
 382              	@ 0 "" 2
 128:main.c        ****     
 129:main.c        ****     generadorOnda_Start();
 383              		.loc 1 129 0
 384              		.thumb
ARM GAS  C:\Users\robin\AppData\Local\Temp\ccXOp84u.s 			page 10


 385              		.syntax unified
 386 000a FFF7FEFF 		bl	generadorOnda_Start
 387              	.LVL42:
 130:main.c        ****     
 131:main.c        ****     Pantalla_Start();
 388              		.loc 1 131 0
 389 000e FFF7FEFF 		bl	Pantalla_Start
 390              	.LVL43:
 132:main.c        ****     UART_Start();
 391              		.loc 1 132 0
 392 0012 FFF7FEFF 		bl	UART_Start
 393              	.LVL44:
 133:main.c        ****     Pantalla_ClearDisplay();
 394              		.loc 1 133 0
 395 0016 0120     		movs	r0, #1
 396 0018 FFF7FEFF 		bl	Pantalla_WriteControl
 397              	.LVL45:
 134:main.c        ****     Pantalla_PrintString("Bienvenido!!!");
 398              		.loc 1 134 0
 399 001c 5848     		ldr	r0, .L39+4
 400 001e FFF7FEFF 		bl	Pantalla_PrintString
 401              	.LVL46:
 402              	.L34:
 135:main.c        **** 
 136:main.c        ****     /* Place your initialization/startup code here (e.g. MyInst_Start()) */
 137:main.c        ****     for(;;)
 138:main.c        ****     {
 139:main.c        ****                 switch (type) {
 403              		.loc 1 139 0
 404 0022 584B     		ldr	r3, .L39+8
 405 0024 5B78     		ldrb	r3, [r3, #1]	@ zero_extendqisi2
 406 0026 032B     		cmp	r3, #3
 407 0028 00F29A80 		bhi	.L18
 408 002c DFE803F0 		tbb	[pc, r3]
 409              	.L20:
 410 0030 02       		.byte	(.L19-.L20)/2
 411 0031 2F       		.byte	(.L21-.L20)/2
 412 0032 5C       		.byte	(.L22-.L20)/2
 413 0033 7D       		.byte	(.L23-.L20)/2
 414              		.p2align 1
 415              	.L19:
 140:main.c        ****                     case SENO:
 141:main.c        ****                         for (i=0; i < MUESTRAS; i++) {
 416              		.loc 1 141 0
 417 0034 0022     		movs	r2, #0
 418 0036 534B     		ldr	r3, .L39+8
 419 0038 5A80     		strh	r2, [r3, #2]	@ movhi
 420 003a 22E0     		b	.L24
 421              	.L25:
 142:main.c        ****                             signal[i] = amp*sin(incrementarFase*i)+amp;
 422              		.loc 1 142 0 discriminator 3
 423 003c 524D     		ldr	r5, .L39+12
 424 003e 2878     		ldrb	r0, [r5]	@ zero_extendqisi2
 425 0040 FFF7FEFF 		bl	__aeabi_i2d
 426              	.LVL47:
 427 0044 0646     		mov	r6, r0
 428 0046 0F46     		mov	r7, r1
ARM GAS  C:\Users\robin\AppData\Local\Temp\ccXOp84u.s 			page 11


 429 0048 2046     		mov	r0, r4
 430 004a FFF7FEFF 		bl	__aeabi_i2f
 431              	.LVL48:
 432 004e 6968     		ldr	r1, [r5, #4]	@ float
 433 0050 FFF7FEFF 		bl	__aeabi_fmul
 434              	.LVL49:
 435 0054 FFF7FEFF 		bl	__aeabi_f2d
 436              	.LVL50:
 437 0058 FFF7FEFF 		bl	sin
 438              	.LVL51:
 439 005c 0246     		mov	r2, r0
 440 005e 0B46     		mov	r3, r1
 441 0060 3046     		mov	r0, r6
 442 0062 3946     		mov	r1, r7
 443 0064 FFF7FEFF 		bl	__aeabi_dmul
 444              	.LVL52:
 445 0068 0246     		mov	r2, r0
 446 006a 0B46     		mov	r3, r1
 447 006c 3046     		mov	r0, r6
 448 006e 3946     		mov	r1, r7
 449 0070 FFF7FEFF 		bl	__aeabi_dadd
 450              	.LVL53:
 451 0074 FFF7FEFF 		bl	__aeabi_d2uiz
 452              	.LVL54:
 453 0078 444B     		ldr	r3, .L39+16
 454 007a 1855     		strb	r0, [r3, r4]
 141:main.c        ****                             signal[i] = amp*sin(incrementarFase*i)+amp;
 455              		.loc 1 141 0 discriminator 3
 456 007c 0134     		adds	r4, r4, #1
 457 007e 414B     		ldr	r3, .L39+8
 458 0080 5C80     		strh	r4, [r3, #2]	@ movhi
 459              	.L24:
 141:main.c        ****                             signal[i] = amp*sin(incrementarFase*i)+amp;
 460              		.loc 1 141 0 is_stmt 0 discriminator 1
 461 0082 404B     		ldr	r3, .L39+8
 462 0084 5C88     		ldrh	r4, [r3, #2]
 463 0086 B4F57A6F 		cmp	r4, #4000
 464 008a D7D3     		bcc	.L25
 465 008c 68E0     		b	.L18
 466              	.L21:
 143:main.c        ****                         }
 144:main.c        ****                         break;
 145:main.c        ****                     case CUADRADA:
 146:main.c        ****                         for (i=0; i < MUESTRAS; i++) {
 467              		.loc 1 146 0 is_stmt 1
 468 008e 0022     		movs	r2, #0
 469 0090 3C4B     		ldr	r3, .L39+8
 470 0092 5A80     		strh	r2, [r3, #2]	@ movhi
 471 0094 22E0     		b	.L26
 472              	.L29:
 147:main.c        ****                             signal[i] = (amp*sin(incrementarFase*i)>=0)?amp*2:0;
 473              		.loc 1 147 0
 474 0096 3C4E     		ldr	r6, .L39+12
 475 0098 3578     		ldrb	r5, [r6]	@ zero_extendqisi2
 476 009a 2046     		mov	r0, r4
 477 009c FFF7FEFF 		bl	__aeabi_i2f
 478              	.LVL55:
ARM GAS  C:\Users\robin\AppData\Local\Temp\ccXOp84u.s 			page 12


 479 00a0 7168     		ldr	r1, [r6, #4]	@ float
 480 00a2 FFF7FEFF 		bl	__aeabi_fmul
 481              	.LVL56:
 482 00a6 FFF7FEFF 		bl	__aeabi_f2d
 483              	.LVL57:
 484 00aa FFF7FEFF 		bl	sin
 485              	.LVL58:
 486 00ae 0646     		mov	r6, r0
 487 00b0 0F46     		mov	r7, r1
 488 00b2 2846     		mov	r0, r5
 489 00b4 FFF7FEFF 		bl	__aeabi_i2d
 490              	.LVL59:
 491 00b8 3246     		mov	r2, r6
 492 00ba 3B46     		mov	r3, r7
 493 00bc FFF7FEFF 		bl	__aeabi_dmul
 494              	.LVL60:
 495 00c0 0022     		movs	r2, #0
 496 00c2 0023     		movs	r3, #0
 497 00c4 FFF7FEFF 		bl	__aeabi_dcmpge
 498              	.LVL61:
 499 00c8 10B1     		cbz	r0, .L37
 500              		.loc 1 147 0 is_stmt 0 discriminator 1
 501 00ca 6D00     		lsls	r5, r5, #1
 502 00cc EDB2     		uxtb	r5, r5
 503 00ce 00E0     		b	.L27
 504              	.L37:
 505              		.loc 1 147 0
 506 00d0 0025     		movs	r5, #0
 507              	.L27:
 508              		.loc 1 147 0 discriminator 4
 509 00d2 2E4B     		ldr	r3, .L39+16
 510 00d4 1D55     		strb	r5, [r3, r4]
 146:main.c        ****                             signal[i] = (amp*sin(incrementarFase*i)>=0)?amp*2:0;
 511              		.loc 1 146 0 is_stmt 1 discriminator 4
 512 00d6 0134     		adds	r4, r4, #1
 513 00d8 2A4B     		ldr	r3, .L39+8
 514 00da 5C80     		strh	r4, [r3, #2]	@ movhi
 515              	.L26:
 146:main.c        ****                             signal[i] = (amp*sin(incrementarFase*i)>=0)?amp*2:0;
 516              		.loc 1 146 0 is_stmt 0 discriminator 2
 517 00dc 294B     		ldr	r3, .L39+8
 518 00de 5C88     		ldrh	r4, [r3, #2]
 519 00e0 B4F57A6F 		cmp	r4, #4000
 520 00e4 D7D3     		bcc	.L29
 521 00e6 3BE0     		b	.L18
 522              	.L22:
 148:main.c        ****                         }
 149:main.c        ****                         break;                        
 150:main.c        ****                     case SIERRA:
 151:main.c        ****                         for (i=0; i < MUESTRAS; i++) {                    
 523              		.loc 1 151 0 is_stmt 1
 524 00e8 0022     		movs	r2, #0
 525 00ea 264B     		ldr	r3, .L39+8
 526 00ec 5A80     		strh	r2, [r3, #2]	@ movhi
 527 00ee 16E0     		b	.L30
 528              	.L31:
 152:main.c        ****                             signal[i] = 2*amp*(float)(i / MUESTRAS);
ARM GAS  C:\Users\robin\AppData\Local\Temp\ccXOp84u.s 			page 13


 529              		.loc 1 152 0 discriminator 3
 530 00f0 254B     		ldr	r3, .L39+12
 531 00f2 1D78     		ldrb	r5, [r3]	@ zero_extendqisi2
 532 00f4 6D00     		lsls	r5, r5, #1
 533 00f6 2648     		ldr	r0, .L39+20
 534 00f8 A0FB0430 		umull	r3, r0, r0, r4
 535 00fc 000A     		lsrs	r0, r0, #8
 536 00fe FFF7FEFF 		bl	__aeabi_i2f
 537              	.LVL62:
 538 0102 0646     		mov	r6, r0
 539 0104 2846     		mov	r0, r5
 540 0106 FFF7FEFF 		bl	__aeabi_i2f
 541              	.LVL63:
 542 010a 3146     		mov	r1, r6
 543 010c FFF7FEFF 		bl	__aeabi_fmul
 544              	.LVL64:
 545 0110 FFF7FEFF 		bl	__aeabi_f2uiz
 546              	.LVL65:
 547 0114 1D4B     		ldr	r3, .L39+16
 548 0116 1855     		strb	r0, [r3, r4]
 151:main.c        ****                             signal[i] = 2*amp*(float)(i / MUESTRAS);
 549              		.loc 1 151 0 discriminator 3
 550 0118 0134     		adds	r4, r4, #1
 551 011a 1A4B     		ldr	r3, .L39+8
 552 011c 5C80     		strh	r4, [r3, #2]	@ movhi
 553              	.L30:
 151:main.c        ****                             signal[i] = 2*amp*(float)(i / MUESTRAS);
 554              		.loc 1 151 0 is_stmt 0 discriminator 1
 555 011e 194B     		ldr	r3, .L39+8
 556 0120 5C88     		ldrh	r4, [r3, #2]
 557 0122 B4F57A6F 		cmp	r4, #4000
 558 0126 E3D3     		bcc	.L31
 559 0128 1AE0     		b	.L18
 560              	.L23:
 153:main.c        ****                         }
 154:main.c        ****                         break;                        
 155:main.c        ****                     case TRIANGULAR:
 156:main.c        ****                         for (i=0; i < MUESTRAS; i++) {
 561              		.loc 1 156 0 is_stmt 1
 562 012a 0022     		movs	r2, #0
 563 012c 154B     		ldr	r3, .L39+8
 564 012e 5A80     		strh	r2, [r3, #2]	@ movhi
 565 0130 11E0     		b	.L32
 566              	.L33:
 157:main.c        ****                             signal[i] = 2*amp - abs(i % (2*2*amp) - 2*amp);
 567              		.loc 1 157 0 discriminator 3
 568 0132 154A     		ldr	r2, .L39+12
 569 0134 1278     		ldrb	r2, [r2]	@ zero_extendqisi2
 570 0136 9000     		lsls	r0, r2, #2
 571 0138 93FBF0F1 		sdiv	r1, r3, r0
 572 013c 00FB1131 		mls	r1, r0, r1, r3
 573 0140 5200     		lsls	r2, r2, #1
 574 0142 891A     		subs	r1, r1, r2
 575 0144 0029     		cmp	r1, #0
 576 0146 B8BF     		it	lt
 577 0148 4942     		rsblt	r1, r1, #0
 578 014a 521A     		subs	r2, r2, r1
ARM GAS  C:\Users\robin\AppData\Local\Temp\ccXOp84u.s 			page 14


 579 014c 0F49     		ldr	r1, .L39+16
 580 014e CA54     		strb	r2, [r1, r3]
 156:main.c        ****                             signal[i] = 2*amp - abs(i % (2*2*amp) - 2*amp);
 581              		.loc 1 156 0 discriminator 3
 582 0150 0133     		adds	r3, r3, #1
 583 0152 0C4A     		ldr	r2, .L39+8
 584 0154 5380     		strh	r3, [r2, #2]	@ movhi
 585              	.L32:
 156:main.c        ****                             signal[i] = 2*amp - abs(i % (2*2*amp) - 2*amp);
 586              		.loc 1 156 0 is_stmt 0 discriminator 1
 587 0156 0B4B     		ldr	r3, .L39+8
 588 0158 5B88     		ldrh	r3, [r3, #2]
 589 015a B3F57A6F 		cmp	r3, #4000
 590 015e E8D3     		bcc	.L33
 591              	.L18:
 158:main.c        ****                         }
 159:main.c        ****                         break;                        
 160:main.c        ****                 }
 161:main.c        ****                 generadorOnda_Stop();
 592              		.loc 1 161 0 is_stmt 1
 593 0160 FFF7FEFF 		bl	generadorOnda_Stop
 594              	.LVL66:
 162:main.c        ****                 generadorOnda_Wave1Setup(signal, 4000);
 595              		.loc 1 162 0
 596 0164 4FF47A61 		mov	r1, #4000
 597 0168 0848     		ldr	r0, .L39+16
 598 016a FFF7FEFF 		bl	generadorOnda_Wave1Setup
 599              	.LVL67:
 163:main.c        ****                 generadorOnda_Start();
 600              		.loc 1 163 0
 601 016e FFF7FEFF 		bl	generadorOnda_Start
 602              	.LVL68:
 164:main.c        ****                 CyDelay(1000);
 603              		.loc 1 164 0
 604 0172 4FF47A70 		mov	r0, #1000
 605 0176 FFF7FEFF 		bl	CyDelay
 606              	.LVL69:
 165:main.c        ****     }
 607              		.loc 1 165 0
 608 017a 52E7     		b	.L34
 609              	.L40:
 610              		.align	2
 611              	.L39:
 612 017c 00000000 		.word	RxIsr
 613 0180 1C010000 		.word	.LC12
 614 0184 00000000 		.word	.LANCHOR0
 615 0188 00000000 		.word	.LANCHOR1
 616 018c 00000000 		.word	signal
 617 0190 D34D6210 		.word	274877907
 618              		.cfi_endproc
 619              	.LFE65:
 620              		.size	main, .-main
 621              		.global	errorStatus
 622              		.global	incrementarFase
 623              		.global	j
 624              		.global	i
 625              		.global	amp
ARM GAS  C:\Users\robin\AppData\Local\Temp\ccXOp84u.s 			page 15


 626              		.global	type
 627              		.comm	signal,4000,4
 628              		.comm	op,1,1
 629              		.data
 630              		.align	2
 631              		.set	.LANCHOR1,. + 0
 632              		.type	amp, %object
 633              		.size	amp, 1
 634              	amp:
 635 0000 7F       		.byte	127
 636 0001 000000   		.space	3
 637              		.type	incrementarFase, %object
 638              		.size	incrementarFase, 4
 639              	incrementarFase:
 640 0004 22E3CD3A 		.word	986571554
 641              		.section	.rodata.str1.4,"aMS",%progbits,1
 642              		.align	2
 643              	.LC0:
 644 0000 416D706C 		.ascii	"Amplitud aumentada\015\012\000"
 644      69747564 
 644      2061756D 
 644      656E7461 
 644      64610D0A 
 645 0015 000000   		.space	3
 646              	.LC1:
 647 0018 416D706C 		.ascii	"Amplitud aumentada\000"
 647      69747564 
 647      2061756D 
 647      656E7461 
 647      646100
 648 002b 00       		.space	1
 649              	.LC2:
 650 002c 416D706C 		.ascii	"Amplitud decrementada\015\012\000"
 650      69747564 
 650      20646563 
 650      72656D65 
 650      6E746164 
 651              	.LC3:
 652 0044 416D706C 		.ascii	"Amplitud decrementada\000"
 652      69747564 
 652      20646563 
 652      72656D65 
 652      6E746164 
 653 005a 0000     		.space	2
 654              	.LC4:
 655 005c 46726563 		.ascii	"Frecuencia aumentada\015\012\000"
 655      75656E63 
 655      69612061 
 655      756D656E 
 655      74616461 
 656 0073 00       		.space	1
 657              	.LC5:
 658 0074 46726563 		.ascii	"Frecuencia aumentada\000"
 658      75656E63 
 658      69612061 
 658      756D656E 
 658      74616461 
ARM GAS  C:\Users\robin\AppData\Local\Temp\ccXOp84u.s 			page 16


 659 0089 000000   		.space	3
 660              	.LC6:
 661 008c 46726563 		.ascii	"Frecuencia decrementada\015\012\000"
 661      75656E63 
 661      69612064 
 661      65637265 
 661      6D656E74 
 662 00a6 0000     		.space	2
 663              	.LC7:
 664 00a8 46726563 		.ascii	"Frecuencia decrementada\000"
 664      75656E63 
 664      69612064 
 664      65637265 
 664      6D656E74 
 665              	.LC8:
 666 00c0 5469706F 		.ascii	"Tipo de onda cambiado\015\012\000"
 666      20646520 
 666      6F6E6461 
 666      2063616D 
 666      62696164 
 667              	.LC9:
 668 00d8 5469706F 		.ascii	"Tipo de onda cambiado\000"
 668      20646520 
 668      6F6E6461 
 668      2063616D 
 668      62696164 
 669 00ee 0000     		.space	2
 670              	.LC10:
 671 00f0 436F6D61 		.ascii	"Comando desconocido\015\012\000"
 671      6E646F20 
 671      64657363 
 671      6F6E6F63 
 671      69646F0D 
 672 0106 0000     		.space	2
 673              	.LC11:
 674 0108 436F6D61 		.ascii	"Comando desconocido\000"
 674      6E646F20 
 674      64657363 
 674      6F6E6F63 
 674      69646F00 
 675              	.LC12:
 676 011c 4269656E 		.ascii	"Bienvenido!!!\000"
 676      76656E69 
 676      646F2121 
 676      2100
 677              		.bss
 678              		.align	1
 679              		.set	.LANCHOR0,. + 0
 680              		.type	errorStatus, %object
 681              		.size	errorStatus, 1
 682              	errorStatus:
 683 0000 00       		.space	1
 684              		.type	type, %object
 685              		.size	type, 1
 686              	type:
 687 0001 00       		.space	1
 688              		.type	i, %object
ARM GAS  C:\Users\robin\AppData\Local\Temp\ccXOp84u.s 			page 17


 689              		.size	i, 2
 690              	i:
 691 0002 0000     		.space	2
 692              		.type	j, %object
 693              		.size	j, 1
 694              	j:
 695 0004 00       		.space	1
 696              		.text
 697              	.Letext0:
 698              		.file 2 "c:\\program files (x86)\\cypress\\psoc creator\\4.2\\psoc creator\\import\\gnu\\arm\\5.4.
 699              		.file 3 "c:\\program files (x86)\\cypress\\psoc creator\\4.2\\psoc creator\\import\\gnu\\arm\\5.4.
 700              		.file 4 "Generated_Source\\PSoC5/cytypes.h"
 701              		.file 5 "Generated_Source\\PSoC5/core_cm3.h"
 702              		.file 6 "Generated_Source\\PSoC5/UART.h"
 703              		.file 7 "Generated_Source\\PSoC5/Pantalla.h"
 704              		.file 8 "Generated_Source\\PSoC5/Clock_1.h"
 705              		.file 9 "Generated_Source\\PSoC5/UART_isr.h"
 706              		.file 10 "Generated_Source\\PSoC5/generadorOnda.h"
 707              		.file 11 "Generated_Source\\PSoC5/CyLib.h"
 708              		.file 12 "c:\\program files (x86)\\cypress\\psoc creator\\4.2\\psoc creator\\import\\gnu\\arm\\5.4