ARM GAS  C:\Users\eleni\AppData\Local\Temp\ccbRGt9t.s 			page 1


   1              		.syntax unified
   2              		.cpu cortex-m3
   3              		.fpu softvfp
   4              		.eabi_attribute 20, 1
   5              		.eabi_attribute 21, 1
   6              		.eabi_attribute 23, 3
   7              		.eabi_attribute 24, 1
   8              		.eabi_attribute 25, 1
   9              		.eabi_attribute 26, 1
  10              		.eabi_attribute 30, 1
  11              		.eabi_attribute 34, 1
  12              		.eabi_attribute 18, 4
  13              		.thumb
  14              		.syntax unified
  15              		.file	"main.c"
  16              		.text
  17              	.Ltext0:
  18              		.cfi_sections	.debug_frame
  19              		.section	.text.main,"ax",%progbits
  20              		.align	2
  21              		.global	main
  22              		.thumb
  23              		.thumb_func
  24              		.type	main, %function
  25              	main:
  26              	.LFB63:
  27              		.file 1 "main.c"
   1:main.c        **** #include "project.h"
   2:main.c        **** 
   3:main.c        **** 
   4:main.c        **** int main()
   5:main.c        **** {
  28              		.loc 1 5 0
  29              		.cfi_startproc
  30              		@ args = 0, pretend = 0, frame = 16
  31              		@ frame_needed = 0, uses_anonymous_args = 0
  32 0000 2DE9F047 		push	{r4, r5, r6, r7, r8, r9, r10, lr}
  33              		.cfi_def_cfa_offset 32
  34              		.cfi_offset 4, -32
  35              		.cfi_offset 5, -28
  36              		.cfi_offset 6, -24
  37              		.cfi_offset 7, -20
  38              		.cfi_offset 8, -16
  39              		.cfi_offset 9, -12
  40              		.cfi_offset 10, -8
  41              		.cfi_offset 14, -4
  42 0004 84B0     		sub	sp, sp, #16
  43              		.cfi_def_cfa_offset 48
   6:main.c        ****     
   7:main.c        ****     int estado[4] = {0,0,0,0};
  44              		.loc 1 7 0
  45 0006 0024     		movs	r4, #0
  46 0008 0094     		str	r4, [sp]
  47 000a 0194     		str	r4, [sp, #4]
  48 000c 0294     		str	r4, [sp, #8]
  49 000e 0394     		str	r4, [sp, #12]
  50              	.LVL0:
ARM GAS  C:\Users\eleni\AppData\Local\Temp\ccbRGt9t.s 			page 2


   8:main.c        ****     int pos = 0;
   9:main.c        ****     int error = 0;
  10:main.c        ****     
  11:main.c        ****     CyGlobalIntEnable; /* Enable global interrupts. */
  51              		.loc 1 11 0
  52              		.syntax unified
  53              	@ 11 "main.c" 1
  54 0010 62B6     		CPSIE   i
  55              	@ 0 "" 2
  56              	.LVL1:
  12:main.c        ****     
  13:main.c        ****     int uestado = estado[0]+(estado[1]<<1)+(estado[2]<<2)+(estado[3]<<3);
  14:main.c        ****     
  15:main.c        ****     Paso_sig_Write(uestado);
  57              		.loc 1 15 0
  58              		.thumb
  59              		.syntax unified
  60 0012 2046     		mov	r0, r4
  61 0014 FFF7FEFF 		bl	Paso_sig_Write
  62              	.LVL2:
  16:main.c        ****     LCD_Start();
  63              		.loc 1 16 0
  64 0018 FFF7FEFF 		bl	LCD_Start
  65              	.LVL3:
  66              	.L18:
  17:main.c        ****     for(;;)
  18:main.c        ****     {   
  19:main.c        ****         if (!Siguiente_Read()) {
  67              		.loc 1 19 0
  68 001c FFF7FEFF 		bl	Siguiente_Read
  69              	.LVL4:
  70 0020 68B9     		cbnz	r0, .L2
  20:main.c        ****             pos = (pos+1)%4;
  71              		.loc 1 20 0
  72 0022 631C     		adds	r3, r4, #1
  73 0024 764A     		ldr	r2, .L20
  74 0026 1340     		ands	r3, r3, r2
  75 0028 03D5     		bpl	.L3
  76 002a 013B     		subs	r3, r3, #1
  77 002c 63F00303 		orn	r3, r3, #3
  78 0030 0133     		adds	r3, r3, #1
  79              	.L3:
  80 0032 1C46     		mov	r4, r3
  81              	.LVL5:
  82              	.L4:
  21:main.c        ****             while(!Siguiente_Read()){}
  83              		.loc 1 21 0 discriminator 1
  84 0034 FFF7FEFF 		bl	Siguiente_Read
  85              	.LVL6:
  86 0038 0028     		cmp	r0, #0
  87 003a FBD0     		beq	.L4
  88 003c 45E0     		b	.L5
  89              	.L2:
  22:main.c        ****         } else if (!Marcar_Read()) {
  90              		.loc 1 22 0
  91 003e FFF7FEFF 		bl	Marcar_Read
  92              	.LVL7:
ARM GAS  C:\Users\eleni\AppData\Local\Temp\ccbRGt9t.s 			page 3


  93 0042 0028     		cmp	r0, #0
  94 0044 41D1     		bne	.L5
  23:main.c        ****             if (pos != 3) {
  95              		.loc 1 23 0
  96 0046 032C     		cmp	r4, #3
  97 0048 25D0     		beq	.L6
  24:main.c        ****                 if ((estado[0] == 0 && estado[pos+1] == 0)||(estado[0] == 1 && estado[pos+1] == 1))
  98              		.loc 1 24 0
  99 004a 009B     		ldr	r3, [sp]
 100 004c 33B9     		cbnz	r3, .L7
 101              		.loc 1 24 0 is_stmt 0 discriminator 1
 102 004e 621C     		adds	r2, r4, #1
 103 0050 04A9     		add	r1, sp, #16
 104 0052 01EB8202 		add	r2, r1, r2, lsl #2
 105 0056 52F8102C 		ldr	r2, [r2, #-16]
 106 005a 4AB1     		cbz	r2, .L8
 107              	.L7:
 108              		.loc 1 24 0 discriminator 3
 109 005c 012B     		cmp	r3, #1
 110 005e 1AD1     		bne	.L6
 111              		.loc 1 24 0 discriminator 4
 112 0060 631C     		adds	r3, r4, #1
 113 0062 04AA     		add	r2, sp, #16
 114 0064 02EB8303 		add	r3, r2, r3, lsl #2
 115 0068 53F8103C 		ldr	r3, [r3, #-16]
 116 006c 012B     		cmp	r3, #1
 117 006e 12D1     		bne	.L6
 118              	.L8:
  25:main.c        ****                     estado[pos+1] = (estado[pos+1]+1)%2;
 119              		.loc 1 25 0 is_stmt 1
 120 0070 621C     		adds	r2, r4, #1
 121 0072 04AB     		add	r3, sp, #16
 122 0074 03EB8203 		add	r3, r3, r2, lsl #2
 123 0078 53F8103C 		ldr	r3, [r3, #-16]
 124 007c 0133     		adds	r3, r3, #1
 125 007e 6149     		ldr	r1, .L20+4
 126 0080 0B40     		ands	r3, r3, r1
 127 0082 03D5     		bpl	.L9
 128 0084 013B     		subs	r3, r3, #1
 129 0086 63F00103 		orn	r3, r3, #1
 130 008a 0133     		adds	r3, r3, #1
 131              	.L9:
 132 008c 04A9     		add	r1, sp, #16
 133 008e 01EB8202 		add	r2, r1, r2, lsl #2
 134 0092 42F8103C 		str	r3, [r2, #-16]
 135              	.L6:
  26:main.c        ****             }
  27:main.c        ****                 
  28:main.c        ****             //Damos un pulso de reloj
  29:main.c        ****             Reloj_controlado_Write(1);
 136              		.loc 1 29 0
 137 0096 0120     		movs	r0, #1
 138 0098 FFF7FEFF 		bl	Reloj_controlado_Write
 139              	.LVL8:
  30:main.c        ****             Reloj_controlado_Write(0);
 140              		.loc 1 30 0
 141 009c 0020     		movs	r0, #0
ARM GAS  C:\Users\eleni\AppData\Local\Temp\ccbRGt9t.s 			page 4


 142 009e FFF7FEFF 		bl	Reloj_controlado_Write
 143              	.LVL9:
  31:main.c        ****             
  32:main.c        ****             //El estado sera la combinacion de tu posicion(granjero) mas la de los tres componentes
  33:main.c        ****             uestado = estado[0]+(estado[1]<<1)+(estado[2]<<2)+(estado[3]<<3);
 144              		.loc 1 33 0
 145 00a2 009D     		ldr	r5, [sp]
 146 00a4 019B     		ldr	r3, [sp, #4]
 147 00a6 05EB4303 		add	r3, r5, r3, lsl #1
 148 00aa 0298     		ldr	r0, [sp, #8]
 149 00ac 03EB8003 		add	r3, r3, r0, lsl #2
 150 00b0 0398     		ldr	r0, [sp, #12]
 151 00b2 03EBC000 		add	r0, r3, r0, lsl #3
 152              	.LVL10:
  34:main.c        ****             Paso_sig_Write(uestado);
 153              		.loc 1 34 0
 154 00b6 C0B2     		uxtb	r0, r0
 155              	.LVL11:
 156 00b8 FFF7FEFF 		bl	Paso_sig_Write
 157              	.LVL12:
  35:main.c        ****             
  36:main.c        ****             estado[0] = 1-estado[0];
 158              		.loc 1 36 0
 159 00bc C5F10105 		rsb	r5, r5, #1
 160              	.LVL13:
 161 00c0 0095     		str	r5, [sp]
 162              	.LVL14:
 163              	.L10:
  37:main.c        ****             
  38:main.c        ****             //Esperamos a que el usuario le de al boton de marcar para continuar
  39:main.c        ****             while(!Marcar_Read());
 164              		.loc 1 39 0 discriminator 1
 165 00c2 FFF7FEFF 		bl	Marcar_Read
 166              	.LVL15:
 167 00c6 0028     		cmp	r0, #0
 168 00c8 FBD0     		beq	.L10
 169              	.LVL16:
 170              	.L5:
  40:main.c        ****         }
  41:main.c        ****         //Comprobamos si el paso escogido es erroneo
  42:main.c        ****         error = Paso_erroneo_Read();
 171              		.loc 1 42 0
 172 00ca FFF7FEFF 		bl	Paso_erroneo_Read
 173              	.LVL17:
 174 00ce 0546     		mov	r5, r0
 175              	.LVL18:
  43:main.c        ****         
  44:main.c        ****         LCD_ClearDisplay();
 176              		.loc 1 44 0
 177 00d0 0120     		movs	r0, #1
 178              	.LVL19:
 179 00d2 FFF7FEFF 		bl	LCD_WriteControl
 180              	.LVL20:
  45:main.c        ****         LCD_Position(0,0);
 181              		.loc 1 45 0
 182 00d6 0021     		movs	r1, #0
 183 00d8 0846     		mov	r0, r1
ARM GAS  C:\Users\eleni\AppData\Local\Temp\ccbRGt9t.s 			page 5


 184 00da FFF7FEFF 		bl	LCD_Position
 185              	.LVL21:
  46:main.c        ****         
  47:main.c        ****         //Imprimimos en el LCD por que ha perdido el jugador, segun el codigo de error devuelto
  48:main.c        ****         if (error == 1) {            
 186              		.loc 1 48 0
 187 00de 012D     		cmp	r5, #1
 188 00e0 0ED1     		bne	.L11
  49:main.c        **** 		    LCD_PrintString("La gallina te");
 189              		.loc 1 49 0
 190 00e2 4948     		ldr	r0, .L20+8
 191 00e4 FFF7FEFF 		bl	LCD_PrintString
 192              	.LVL22:
  50:main.c        ****             LCD_Position(1,0);
 193              		.loc 1 50 0
 194 00e8 0021     		movs	r1, #0
 195 00ea 0120     		movs	r0, #1
 196 00ec FFF7FEFF 		bl	LCD_Position
 197              	.LVL23:
  51:main.c        **** 		    LCD_PrintString("dejo sin maiz");
 198              		.loc 1 51 0
 199 00f0 4648     		ldr	r0, .L20+12
 200 00f2 FFF7FEFF 		bl	LCD_PrintString
 201              	.LVL24:
  52:main.c        ****             
  53:main.c        ****             CyDelay(10000);
 202              		.loc 1 53 0
 203 00f6 42F21070 		movw	r0, #10000
 204 00fa FFF7FEFF 		bl	CyDelay
 205              	.LVL25:
 206 00fe 7BE0     		b	.L12
 207              	.L11:
  54:main.c        ****         } else if (error == 2) {            
 208              		.loc 1 54 0
 209 0100 022D     		cmp	r5, #2
 210 0102 0ED1     		bne	.L13
  55:main.c        **** 		    LCD_PrintString("La gallina ya no");
 211              		.loc 1 55 0
 212 0104 4248     		ldr	r0, .L20+16
 213 0106 FFF7FEFF 		bl	LCD_PrintString
 214              	.LVL26:
  56:main.c        **** 		    LCD_Position(1,0);
 215              		.loc 1 56 0
 216 010a 0021     		movs	r1, #0
 217 010c 0120     		movs	r0, #1
 218 010e FFF7FEFF 		bl	LCD_Position
 219              	.LVL27:
  57:main.c        **** 		    LCD_PrintString("te dara problema");
 220              		.loc 1 57 0
 221 0112 4048     		ldr	r0, .L20+20
 222 0114 FFF7FEFF 		bl	LCD_PrintString
 223              	.LVL28:
  58:main.c        ****             CyDelay(10000);
 224              		.loc 1 58 0
 225 0118 42F21070 		movw	r0, #10000
 226 011c FFF7FEFF 		bl	CyDelay
 227              	.LVL29:
ARM GAS  C:\Users\eleni\AppData\Local\Temp\ccbRGt9t.s 			page 6


 228 0120 6AE0     		b	.L12
 229              	.L13:
  59:main.c        ****         } else if (Paso_actual_Read() != (Ultimo_Paso_Read()+1) && (Paso_actual_Read() != Ultimo_Pa
 230              		.loc 1 59 0
 231 0122 FFF7FEFF 		bl	Paso_actual_Read
 232              	.LVL30:
 233 0126 0546     		mov	r5, r0
 234              	.LVL31:
 235 0128 FFF7FEFF 		bl	Ultimo_Paso_Read
 236              	.LVL32:
 237 012c 0130     		adds	r0, r0, #1
 238 012e 8542     		cmp	r5, r0
 239 0130 0ED0     		beq	.L14
 240              		.loc 1 59 0 is_stmt 0 discriminator 1
 241 0132 FFF7FEFF 		bl	Paso_actual_Read
 242              	.LVL33:
 243 0136 0546     		mov	r5, r0
 244 0138 FFF7FEFF 		bl	Ultimo_Paso_Read
 245              	.LVL34:
 246 013c 8542     		cmp	r5, r0
 247 013e 07D0     		beq	.L14
  60:main.c        ****             LCD_PrintString("Paso incorrecto");
 248              		.loc 1 60 0 is_stmt 1
 249 0140 3548     		ldr	r0, .L20+24
 250 0142 FFF7FEFF 		bl	LCD_PrintString
 251              	.LVL35:
  61:main.c        ****             CyDelay(5000);
 252              		.loc 1 61 0
 253 0146 41F28830 		movw	r0, #5000
 254 014a FFF7FEFF 		bl	CyDelay
 255              	.LVL36:
 256 014e 53E0     		b	.L12
 257              	.L14:
  62:main.c        ****         } else if (Paso_actual_Read() == 7U) {
 258              		.loc 1 62 0
 259 0150 FFF7FEFF 		bl	Paso_actual_Read
 260              	.LVL37:
 261 0154 0728     		cmp	r0, #7
 262 0156 03D1     		bne	.L15
  63:main.c        ****             LCD_PrintString("Tremenda jugada!");
 263              		.loc 1 63 0
 264 0158 3048     		ldr	r0, .L20+28
 265 015a FFF7FEFF 		bl	LCD_PrintString
 266              	.LVL38:
 267 015e 4BE0     		b	.L12
 268              	.L15:
  64:main.c        ****         } else {      
  65:main.c        ****             
  66:main.c        ****     		LCD_PrintString(" M:");
 269              		.loc 1 66 0
 270 0160 DFF8C4A0 		ldr	r10, .L20+40
 271 0164 5046     		mov	r0, r10
 272 0166 FFF7FEFF 		bl	LCD_PrintString
 273              	.LVL39:
  67:main.c        ****             LCD_PrintDecUint16(1-estado[1]);
 274              		.loc 1 67 0
 275 016a DDF80490 		ldr	r9, [sp, #4]
ARM GAS  C:\Users\eleni\AppData\Local\Temp\ccbRGt9t.s 			page 7


 276 016e C9F10100 		rsb	r0, r9, #1
 277 0172 80B2     		uxth	r0, r0
 278 0174 FFF7FEFF 		bl	LCD_PrintU32Number
 279              	.LVL40:
  68:main.c        ****             
  69:main.c        ****             LCD_PrintString(" G:");
 280              		.loc 1 69 0
 281 0178 DFF8B080 		ldr	r8, .L20+44
 282 017c 4046     		mov	r0, r8
 283 017e FFF7FEFF 		bl	LCD_PrintString
 284              	.LVL41:
  70:main.c        ****             LCD_PrintDecUint16(1-estado[2]);
 285              		.loc 1 70 0
 286 0182 029F     		ldr	r7, [sp, #8]
 287 0184 C7F10100 		rsb	r0, r7, #1
 288 0188 80B2     		uxth	r0, r0
 289 018a FFF7FEFF 		bl	LCD_PrintU32Number
 290              	.LVL42:
  71:main.c        ****             
  72:main.c        ****             LCD_PrintString(" Z:");
 291              		.loc 1 72 0
 292 018e 244E     		ldr	r6, .L20+32
 293 0190 3046     		mov	r0, r6
 294 0192 FFF7FEFF 		bl	LCD_PrintString
 295              	.LVL43:
  73:main.c        ****             LCD_PrintDecUint16(1-estado[3]);
 296              		.loc 1 73 0
 297 0196 039D     		ldr	r5, [sp, #12]
 298 0198 C5F10100 		rsb	r0, r5, #1
 299 019c 80B2     		uxth	r0, r0
 300 019e FFF7FEFF 		bl	LCD_PrintU32Number
 301              	.LVL44:
  74:main.c        ****             
  75:main.c        ****             LCD_Position(1,0);
 302              		.loc 1 75 0
 303 01a2 0021     		movs	r1, #0
 304 01a4 0120     		movs	r0, #1
 305 01a6 FFF7FEFF 		bl	LCD_Position
 306              	.LVL45:
  76:main.c        ****     		LCD_PrintString(" M:");
 307              		.loc 1 76 0
 308 01aa 5046     		mov	r0, r10
 309 01ac FFF7FEFF 		bl	LCD_PrintString
 310              	.LVL46:
  77:main.c        ****             LCD_PrintDecUint16(estado[1]);
 311              		.loc 1 77 0
 312 01b0 1FFA89F0 		uxth	r0, r9
 313 01b4 FFF7FEFF 		bl	LCD_PrintU32Number
 314              	.LVL47:
  78:main.c        ****             
  79:main.c        ****             LCD_PrintString(" G:");
 315              		.loc 1 79 0
 316 01b8 4046     		mov	r0, r8
 317 01ba FFF7FEFF 		bl	LCD_PrintString
 318              	.LVL48:
  80:main.c        ****             LCD_PrintDecUint16(estado[2]);
 319              		.loc 1 80 0
ARM GAS  C:\Users\eleni\AppData\Local\Temp\ccbRGt9t.s 			page 8


 320 01be B8B2     		uxth	r0, r7
 321 01c0 FFF7FEFF 		bl	LCD_PrintU32Number
 322              	.LVL49:
  81:main.c        ****             
  82:main.c        ****             LCD_PrintString(" Z:");
 323              		.loc 1 82 0
 324 01c4 3046     		mov	r0, r6
 325 01c6 FFF7FEFF 		bl	LCD_PrintString
 326              	.LVL50:
  83:main.c        ****             LCD_PrintDecUint16(estado[3]);
 327              		.loc 1 83 0
 328 01ca A8B2     		uxth	r0, r5
 329 01cc FFF7FEFF 		bl	LCD_PrintU32Number
 330              	.LVL51:
  84:main.c        ****             if (pos != 3) {
 331              		.loc 1 84 0
 332 01d0 032C     		cmp	r4, #3
 333 01d2 11D0     		beq	.L12
  85:main.c        ****                 if (estado[0] == 0)
 334              		.loc 1 85 0
 335 01d4 009B     		ldr	r3, [sp]
 336 01d6 33B9     		cbnz	r3, .L16
  86:main.c        ****                     LCD_Position(0,(pos*4));
 337              		.loc 1 86 0
 338 01d8 A100     		lsls	r1, r4, #2
 339 01da 01F0FC01 		and	r1, r1, #252
 340 01de 0020     		movs	r0, #0
 341 01e0 FFF7FEFF 		bl	LCD_Position
 342              	.LVL52:
 343 01e4 05E0     		b	.L17
 344              	.L16:
  87:main.c        ****                 else
  88:main.c        ****                     LCD_Position(1,(pos*4));
 345              		.loc 1 88 0
 346 01e6 A100     		lsls	r1, r4, #2
 347 01e8 01F0FC01 		and	r1, r1, #252
 348 01ec 0120     		movs	r0, #1
 349 01ee FFF7FEFF 		bl	LCD_Position
 350              	.LVL53:
 351              	.L17:
  89:main.c        ****                 LCD_PrintString("*");
 352              		.loc 1 89 0
 353 01f2 0C48     		ldr	r0, .L20+36
 354 01f4 FFF7FEFF 		bl	LCD_PrintString
 355              	.LVL54:
 356              	.L12:
  90:main.c        ****             }
  91:main.c        ****         }        
  92:main.c        **** 
  93:main.c        ****         CyDelay(100);
 357              		.loc 1 93 0
 358 01f8 6420     		movs	r0, #100
 359 01fa FFF7FEFF 		bl	CyDelay
 360              	.LVL55:
  94:main.c        ****     }
 361              		.loc 1 94 0
 362 01fe 0DE7     		b	.L18
ARM GAS  C:\Users\eleni\AppData\Local\Temp\ccbRGt9t.s 			page 9


 363              	.L21:
 364              		.align	2
 365              	.L20:
 366 0200 03000080 		.word	-2147483645
 367 0204 01000080 		.word	-2147483647
 368 0208 00000000 		.word	.LC0
 369 020c 10000000 		.word	.LC1
 370 0210 20000000 		.word	.LC2
 371 0214 34000000 		.word	.LC3
 372 0218 48000000 		.word	.LC4
 373 021c 58000000 		.word	.LC5
 374 0220 74000000 		.word	.LC8
 375 0224 78000000 		.word	.LC9
 376 0228 6C000000 		.word	.LC6
 377 022c 70000000 		.word	.LC7
 378              		.cfi_endproc
 379              	.LFE63:
 380              		.size	main, .-main
 381              		.section	.rodata.str1.4,"aMS",%progbits,1
 382              		.align	2
 383              	.LC0:
 384 0000 4C612067 		.ascii	"La gallina te\000"
 384      616C6C69 
 384      6E612074 
 384      6500
 385 000e 0000     		.space	2
 386              	.LC1:
 387 0010 64656A6F 		.ascii	"dejo sin maiz\000"
 387      2073696E 
 387      206D6169 
 387      7A00
 388 001e 0000     		.space	2
 389              	.LC2:
 390 0020 4C612067 		.ascii	"La gallina ya no\000"
 390      616C6C69 
 390      6E612079 
 390      61206E6F 
 390      00
 391 0031 000000   		.space	3
 392              	.LC3:
 393 0034 74652064 		.ascii	"te dara problema\000"
 393      61726120 
 393      70726F62 
 393      6C656D61 
 393      00
 394 0045 000000   		.space	3
 395              	.LC4:
 396 0048 5061736F 		.ascii	"Paso incorrecto\000"
 396      20696E63 
 396      6F727265 
 396      63746F00 
 397              	.LC5:
 398 0058 5472656D 		.ascii	"Tremenda jugada!\000"
 398      656E6461 
 398      206A7567 
 398      61646121 
 398      00
ARM GAS  C:\Users\eleni\AppData\Local\Temp\ccbRGt9t.s 			page 10


 399 0069 000000   		.space	3
 400              	.LC6:
 401 006c 204D3A00 		.ascii	" M:\000"
 402              	.LC7:
 403 0070 20473A00 		.ascii	" G:\000"
 404              	.LC8:
 405 0074 205A3A00 		.ascii	" Z:\000"
 406              	.LC9:
 407 0078 2A00     		.ascii	"*\000"
 408              		.text
 409              	.Letext0:
 410              		.file 2 "c:\\program files (x86)\\cypress\\psoc creator\\4.2\\psoc creator\\import\\gnu\\arm\\5.4.
 411              		.file 3 "c:\\program files (x86)\\cypress\\psoc creator\\4.2\\psoc creator\\import\\gnu\\arm\\5.4.
 412              		.file 4 "Generated_Source\\PSoC5/cytypes.h"
 413              		.file 5 "Generated_Source\\PSoC5/Paso_sig.h"
 414              		.file 6 "Generated_Source\\PSoC5/LCD.h"
 415              		.file 7 "Generated_Source\\PSoC5/Siguiente.h"
 416              		.file 8 "Generated_Source\\PSoC5/Marcar.h"
 417              		.file 9 "Generated_Source\\PSoC5/Reloj_controlado.h"
 418              		.file 10 "Generated_Source\\PSoC5/Paso_erroneo.h"
 419              		.file 11 "Generated_Source\\PSoC5/CyLib.h"
 420              		.file 12 "Generated_Source\\PSoC5/Paso_actual.h"
 421              		.file 13 "Generated_Source\\PSoC5/Ultimo_Paso.h"
 422              		.file 14 "Generated_Source\\PSoC5/core_cm3.h"