ARM GAS  C:\Users\robin\AppData\Local\Temp\ccvKRxkx.s 			page 1


   1              		.syntax unified
   2              		.cpu cortex-m3
   3              		.fpu softvfp
   4              		.eabi_attribute 20, 1
   5              		.eabi_attribute 21, 1
   6              		.eabi_attribute 23, 3
   7              		.eabi_attribute 24, 1
   8              		.eabi_attribute 25, 1
   9              		.eabi_attribute 26, 1
  10              		.eabi_attribute 30, 1
  11              		.eabi_attribute 34, 1
  12              		.eabi_attribute 18, 4
  13              		.thumb
  14              		.syntax unified
  15              		.file	"main.c"
  16              		.text
  17              	.Ltext0:
  18              		.cfi_sections	.debug_frame
  19              		.section	.text.main,"ax",%progbits
  20              		.align	2
  21              		.global	main
  22              		.thumb
  23              		.thumb_func
  24              		.type	main, %function
  25              	main:
  26              	.LFB63:
  27              		.file 1 "main.c"
   1:main.c        **** #include "project.h"
   2:main.c        **** 
   3:main.c        **** int main(void)
   4:main.c        **** {
  28              		.loc 1 4 0
  29              		.cfi_startproc
  30              		@ args = 0, pretend = 0, frame = 0
  31              		@ frame_needed = 0, uses_anonymous_args = 0
  32 0000 F8B5     		push	{r3, r4, r5, r6, r7, lr}
  33              		.cfi_def_cfa_offset 24
  34              		.cfi_offset 3, -24
  35              		.cfi_offset 4, -20
  36              		.cfi_offset 5, -16
  37              		.cfi_offset 6, -12
  38              		.cfi_offset 7, -8
  39              		.cfi_offset 14, -4
   5:main.c        ****     CyGlobalIntEnable; /* Enable global interrupts. */
  40              		.loc 1 5 0
  41              		.syntax unified
  42              	@ 5 "main.c" 1
  43 0002 62B6     		CPSIE   i
  44              	@ 0 "" 2
   6:main.c        ****     LCD_Start();
  45              		.loc 1 6 0
  46              		.thumb
  47              		.syntax unified
  48 0004 FFF7FEFF 		bl	LCD_Start
  49              	.LVL0:
   7:main.c        ****     
   8:main.c        ****     CyDelay(1000);
ARM GAS  C:\Users\robin\AppData\Local\Temp\ccvKRxkx.s 			page 2


  50              		.loc 1 8 0
  51 0008 4FF47A70 		mov	r0, #1000
  52 000c FFF7FEFF 		bl	CyDelay
  53              	.LVL1:
   9:main.c        ****     LCD_PrintString("Bienvenido a la practica 2");
  54              		.loc 1 9 0
  55 0010 4948     		ldr	r0, .L20
  56 0012 FFF7FEFF 		bl	LCD_PrintString
  57              	.LVL2:
  10:main.c        ****     
  11:main.c        ****     CyDelay(1000);
  58              		.loc 1 11 0
  59 0016 4FF47A70 		mov	r0, #1000
  60 001a FFF7FEFF 		bl	CyDelay
  61              	.LVL3:
  12:main.c        ****     LCD_ClearDisplay();
  62              		.loc 1 12 0
  63 001e 0120     		movs	r0, #1
  64 0020 FFF7FEFF 		bl	LCD_WriteControl
  65              	.LVL4:
  13:main.c        ****     
  14:main.c        ****     uint8 a = 0U;
  15:main.c        ****     uint8 b = 0U;
  16:main.c        ****     uint8 modo = 0U;
  17:main.c        ****     uint8 resultado = 0U;
  66              		.loc 1 17 0
  67 0024 0027     		movs	r7, #0
  16:main.c        ****     uint8 resultado = 0U;
  68              		.loc 1 16 0
  69 0026 3C46     		mov	r4, r7
  15:main.c        ****     uint8 modo = 0U;
  70              		.loc 1 15 0
  71 0028 3E46     		mov	r6, r7
  14:main.c        ****     uint8 b = 0U;
  72              		.loc 1 14 0
  73 002a 3D46     		mov	r5, r7
  74              	.LVL5:
  75              	.L18:
  18:main.c        ****     
  19:main.c        **** 
  20:main.c        ****     /* Place your initialization/startup code here (e.g. MyInst_Start()) */
  21:main.c        **** 
  22:main.c        ****     for(;;)
  23:main.c        ****     {
  24:main.c        ****         
  25:main.c        ****         
  26:main.c        ****         if(siguiente_Read()){
  76              		.loc 1 26 0
  77 002c FFF7FEFF 		bl	siguiente_Read
  78              	.LVL6:
  79 0030 68B1     		cbz	r0, .L2
  27:main.c        ****             modo = (modo + 1) % 3;
  80              		.loc 1 27 0
  81 0032 0134     		adds	r4, r4, #1
  82              	.LVL7:
  83 0034 414B     		ldr	r3, .L20+4
  84 0036 83FB0423 		smull	r2, r3, r3, r4
ARM GAS  C:\Users\robin\AppData\Local\Temp\ccvKRxkx.s 			page 3


  85 003a A3EBE473 		sub	r3, r3, r4, asr #31
  86 003e 03EB4303 		add	r3, r3, r3, lsl #1
  87 0042 E31A     		subs	r3, r4, r3
  88 0044 DCB2     		uxtb	r4, r3
  89              	.LVL8:
  90              	.L3:
  28:main.c        ****             while(!siguiente_Read()){
  91              		.loc 1 28 0 discriminator 1
  92 0046 FFF7FEFF 		bl	siguiente_Read
  93              	.LVL9:
  94 004a 0028     		cmp	r0, #0
  95 004c FBD0     		beq	.L3
  96              	.L2:
  29:main.c        ****             }
  30:main.c        ****         }
  31:main.c        ****         
  32:main.c        ****         switch(modo){
  97              		.loc 1 32 0
  98 004e 012C     		cmp	r4, #1
  99 0050 26D0     		beq	.L5
 100 0052 14B1     		cbz	r4, .L6
 101 0054 022C     		cmp	r4, #2
 102 0056 45D0     		beq	.L7
 103 0058 4CE0     		b	.L4
 104              	.L6:
  33:main.c        ****             case 0:
  34:main.c        ****                 if(!inc_Read()){
 105              		.loc 1 34 0
 106 005a FFF7FEFF 		bl	inc_Read
 107              	.LVL10:
 108 005e 68B9     		cbnz	r0, .L8
  35:main.c        ****                     a = (a+1)%4;
 109              		.loc 1 35 0
 110 0060 0135     		adds	r5, r5, #1
 111              	.LVL11:
 112 0062 374B     		ldr	r3, .L20+8
 113 0064 1D40     		ands	r5, r5, r3
 114 0066 03D5     		bpl	.L9
 115 0068 013D     		subs	r5, r5, #1
 116 006a 65F00305 		orn	r5, r5, #3
 117 006e 0135     		adds	r5, r5, #1
 118              	.L9:
 119 0070 EDB2     		uxtb	r5, r5
 120              	.LVL12:
 121              	.L10:
  36:main.c        ****                     while(!inc_Read()){
 122              		.loc 1 36 0 discriminator 1
 123 0072 FFF7FEFF 		bl	inc_Read
 124              	.LVL13:
 125 0076 0028     		cmp	r0, #0
 126 0078 FBD0     		beq	.L10
 127 007a 3BE0     		b	.L4
 128              	.L8:
  37:main.c        ****                     }
  38:main.c        ****                 }else if(!dec_Read()){
 129              		.loc 1 38 0
 130 007c FFF7FEFF 		bl	dec_Read
ARM GAS  C:\Users\robin\AppData\Local\Temp\ccvKRxkx.s 			page 4


 131              	.LVL14:
 132 0080 0028     		cmp	r0, #0
 133 0082 37D1     		bne	.L4
  39:main.c        ****                     a = (a-1)%4;
 134              		.loc 1 39 0
 135 0084 013D     		subs	r5, r5, #1
 136              	.LVL15:
 137 0086 2E4B     		ldr	r3, .L20+8
 138 0088 1D40     		ands	r5, r5, r3
 139 008a 03D5     		bpl	.L11
 140 008c 013D     		subs	r5, r5, #1
 141 008e 65F00305 		orn	r5, r5, #3
 142 0092 0135     		adds	r5, r5, #1
 143              	.L11:
 144 0094 EDB2     		uxtb	r5, r5
 145              	.LVL16:
 146              	.L12:
  40:main.c        ****                     while(!dec_Read()){
 147              		.loc 1 40 0 discriminator 1
 148 0096 FFF7FEFF 		bl	dec_Read
 149              	.LVL17:
 150 009a 0028     		cmp	r0, #0
 151 009c FBD0     		beq	.L12
 152 009e 29E0     		b	.L4
 153              	.L5:
  41:main.c        ****                     }
  42:main.c        ****                 }
  43:main.c        ****                 break;
  44:main.c        ****             case 1:
  45:main.c        ****                  if(!inc_Read()){
 154              		.loc 1 45 0
 155 00a0 FFF7FEFF 		bl	inc_Read
 156              	.LVL18:
 157 00a4 68B9     		cbnz	r0, .L13
  46:main.c        ****                     b = (b+1)%4;
 158              		.loc 1 46 0
 159 00a6 0136     		adds	r6, r6, #1
 160              	.LVL19:
 161 00a8 254B     		ldr	r3, .L20+8
 162 00aa 1E40     		ands	r6, r6, r3
 163 00ac 03D5     		bpl	.L14
 164 00ae 013E     		subs	r6, r6, #1
 165 00b0 66F00306 		orn	r6, r6, #3
 166 00b4 0136     		adds	r6, r6, #1
 167              	.L14:
 168 00b6 F6B2     		uxtb	r6, r6
 169              	.LVL20:
 170              	.L15:
  47:main.c        ****                     while(!inc_Read()){
 171              		.loc 1 47 0 discriminator 1
 172 00b8 FFF7FEFF 		bl	inc_Read
 173              	.LVL21:
 174 00bc 0028     		cmp	r0, #0
 175 00be FBD0     		beq	.L15
 176 00c0 18E0     		b	.L4
 177              	.L13:
  48:main.c        ****                     }
ARM GAS  C:\Users\robin\AppData\Local\Temp\ccvKRxkx.s 			page 5


  49:main.c        ****                 }else if(!dec_Read()){
 178              		.loc 1 49 0
 179 00c2 FFF7FEFF 		bl	dec_Read
 180              	.LVL22:
 181 00c6 A8B9     		cbnz	r0, .L4
  50:main.c        ****                     b = (b-1)%4;
 182              		.loc 1 50 0
 183 00c8 013E     		subs	r6, r6, #1
 184              	.LVL23:
 185 00ca 1D4B     		ldr	r3, .L20+8
 186 00cc 1E40     		ands	r6, r6, r3
 187 00ce 03D5     		bpl	.L16
 188 00d0 013E     		subs	r6, r6, #1
 189 00d2 66F00306 		orn	r6, r6, #3
 190 00d6 0136     		adds	r6, r6, #1
 191              	.L16:
 192 00d8 F6B2     		uxtb	r6, r6
 193              	.LVL24:
 194              	.L17:
  51:main.c        ****                     while(!dec_Read()){
 195              		.loc 1 51 0 discriminator 1
 196 00da FFF7FEFF 		bl	dec_Read
 197              	.LVL25:
 198 00de 0028     		cmp	r0, #0
 199 00e0 FBD0     		beq	.L17
 200 00e2 07E0     		b	.L4
 201              	.L7:
  52:main.c        ****                     }
  53:main.c        ****                 }
  54:main.c        ****                 break;
  55:main.c        ****             case 2:
  56:main.c        ****                 
  57:main.c        ****                 registro_Write(a + (b << 2));
 202              		.loc 1 57 0
 203 00e4 05EB8600 		add	r0, r5, r6, lsl #2
 204 00e8 C0B2     		uxtb	r0, r0
 205 00ea FFF7FEFF 		bl	registro_Write
 206              	.LVL26:
  58:main.c        ****                 resultado = registro2_Read();
 207              		.loc 1 58 0
 208 00ee FFF7FEFF 		bl	registro2_Read
 209              	.LVL27:
 210 00f2 0746     		mov	r7, r0
 211              	.LVL28:
 212              	.L4:
  59:main.c        ****                 
  60:main.c        ****                 break;
  61:main.c        ****             
  62:main.c        ****         }
  63:main.c        ****         
  64:main.c        ****             LCD_ClearDisplay();
 213              		.loc 1 64 0
 214 00f4 0120     		movs	r0, #1
 215 00f6 FFF7FEFF 		bl	LCD_WriteControl
 216              	.LVL29:
  65:main.c        ****             LCD_Position(0U,0U);
 217              		.loc 1 65 0
ARM GAS  C:\Users\robin\AppData\Local\Temp\ccvKRxkx.s 			page 6


 218 00fa 0021     		movs	r1, #0
 219 00fc 0846     		mov	r0, r1
 220 00fe FFF7FEFF 		bl	LCD_Position
 221              	.LVL30:
  66:main.c        ****             LCD_PrintString("A: ");
 222              		.loc 1 66 0
 223 0102 1048     		ldr	r0, .L20+12
 224 0104 FFF7FEFF 		bl	LCD_PrintString
 225              	.LVL31:
  67:main.c        ****             LCD_PrintDecUint16(a);
 226              		.loc 1 67 0
 227 0108 2846     		mov	r0, r5
 228 010a FFF7FEFF 		bl	LCD_PrintU32Number
 229              	.LVL32:
  68:main.c        ****             LCD_PrintString(" * B: ");
 230              		.loc 1 68 0
 231 010e 0E48     		ldr	r0, .L20+16
 232 0110 FFF7FEFF 		bl	LCD_PrintString
 233              	.LVL33:
  69:main.c        ****             LCD_PrintDecUint16(b);
 234              		.loc 1 69 0
 235 0114 3046     		mov	r0, r6
 236 0116 FFF7FEFF 		bl	LCD_PrintU32Number
 237              	.LVL34:
  70:main.c        ****             LCD_PrintString(" = ");
 238              		.loc 1 70 0
 239 011a 0C48     		ldr	r0, .L20+20
 240 011c FFF7FEFF 		bl	LCD_PrintString
 241              	.LVL35:
  71:main.c        ****             LCD_Position(1U,0U);
 242              		.loc 1 71 0
 243 0120 0021     		movs	r1, #0
 244 0122 0120     		movs	r0, #1
 245 0124 FFF7FEFF 		bl	LCD_Position
 246              	.LVL36:
  72:main.c        ****             LCD_PrintDecUint16(resultado);
 247              		.loc 1 72 0
 248 0128 3846     		mov	r0, r7
 249 012a FFF7FEFF 		bl	LCD_PrintU32Number
 250              	.LVL37:
  73:main.c        ****             CyDelay(1000);
 251              		.loc 1 73 0
 252 012e 4FF47A70 		mov	r0, #1000
 253 0132 FFF7FEFF 		bl	CyDelay
 254              	.LVL38:
  74:main.c        ****         
  75:main.c        ****         
  76:main.c        ****        
  77:main.c        ****     }
 255              		.loc 1 77 0
 256 0136 79E7     		b	.L18
 257              	.L21:
 258              		.align	2
 259              	.L20:
 260 0138 00000000 		.word	.LC0
 261 013c 56555555 		.word	1431655766
 262 0140 03000080 		.word	-2147483645
ARM GAS  C:\Users\robin\AppData\Local\Temp\ccvKRxkx.s 			page 7


 263 0144 1C000000 		.word	.LC1
 264 0148 20000000 		.word	.LC2
 265 014c 28000000 		.word	.LC3
 266              		.cfi_endproc
 267              	.LFE63:
 268              		.size	main, .-main
 269              		.section	.rodata.str1.4,"aMS",%progbits,1
 270              		.align	2
 271              	.LC0:
 272 0000 4269656E 		.ascii	"Bienvenido a la practica 2\000"
 272      76656E69 
 272      646F2061 
 272      206C6120 
 272      70726163 
 273 001b 00       		.space	1
 274              	.LC1:
 275 001c 413A2000 		.ascii	"A: \000"
 276              	.LC2:
 277 0020 202A2042 		.ascii	" * B: \000"
 277      3A2000
 278 0027 00       		.space	1
 279              	.LC3:
 280 0028 203D2000 		.ascii	" = \000"
 281              		.text
 282              	.Letext0:
 283              		.file 2 "c:\\program files (x86)\\cypress\\psoc creator\\4.2\\psoc creator\\import\\gnu\\arm\\5.4.
 284              		.file 3 "c:\\program files (x86)\\cypress\\psoc creator\\4.2\\psoc creator\\import\\gnu\\arm\\5.4.
 285              		.file 4 "Generated_Source\\PSoC5/cytypes.h"
 286              		.file 5 "Generated_Source\\PSoC5/LCD.h"
 287              		.file 6 "Generated_Source\\PSoC5/CyLib.h"
 288              		.file 7 "Generated_Source\\PSoC5/siguiente.h"
 289              		.file 8 "Generated_Source\\PSoC5/inc.h"
 290              		.file 9 "Generated_Source\\PSoC5/dec.h"
 291              		.file 10 "Generated_Source\\PSoC5/registro.h"
 292              		.file 11 "Generated_Source\\PSoC5/registro2.h"
 293              		.file 12 "Generated_Source\\PSoC5/core_cm3.h"