ARM GAS  C:\Users\robin\AppData\Local\Temp\ccNNOVQD.s 			page 1


   1              		.syntax unified
   2              		.cpu cortex-m3
   3              		.fpu softvfp
   4              		.eabi_attribute 20, 1
   5              		.eabi_attribute 21, 1
   6              		.eabi_attribute 23, 3
   7              		.eabi_attribute 24, 1
   8              		.eabi_attribute 25, 1
   9              		.eabi_attribute 26, 1
  10              		.eabi_attribute 30, 1
  11              		.eabi_attribute 34, 1
  12              		.eabi_attribute 18, 4
  13              		.thumb
  14              		.syntax unified
  15              		.file	"display.c"
  16              		.text
  17              	.Ltext0:
  18              		.cfi_sections	.debug_frame
  19              		.section	.text.DisplayWelcome,"ax",%progbits
  20              		.align	2
  21              		.global	DisplayWelcome
  22              		.thumb
  23              		.thumb_func
  24              		.type	DisplayWelcome, %function
  25              	DisplayWelcome:
  26              	.LFB63:
  27              		.file 1 "display.c"
   1:display.c     **** #include "project.h"
   2:display.c     **** #include "display.h"
   3:display.c     **** 
   4:display.c     **** void DisplayWelcome(){
  28              		.loc 1 4 0
  29              		.cfi_startproc
  30              		@ args = 0, pretend = 0, frame = 0
  31              		@ frame_needed = 0, uses_anonymous_args = 0
  32 0000 08B5     		push	{r3, lr}
  33              		.cfi_def_cfa_offset 8
  34              		.cfi_offset 3, -8
  35              		.cfi_offset 14, -4
   5:display.c     **** 	LCD_ClearDisplay();
  36              		.loc 1 5 0
  37 0002 0120     		movs	r0, #1
  38 0004 FFF7FEFF 		bl	LCD_WriteControl
  39              	.LVL0:
   6:display.c     **** 	LCD_Position(0, 0);
  40              		.loc 1 6 0
  41 0008 0021     		movs	r1, #0
  42 000a 0846     		mov	r0, r1
  43 000c FFF7FEFF 		bl	LCD_Position
  44              	.LVL1:
   7:display.c     **** 	LCD_PrintString("PSoC Mola");
  45              		.loc 1 7 0
  46 0010 0148     		ldr	r0, .L3
  47 0012 FFF7FEFF 		bl	LCD_PrintString
  48              	.LVL2:
  49 0016 08BD     		pop	{r3, pc}
  50              	.L4:
ARM GAS  C:\Users\robin\AppData\Local\Temp\ccNNOVQD.s 			page 2


  51              		.align	2
  52              	.L3:
  53 0018 00000000 		.word	.LC0
  54              		.cfi_endproc
  55              	.LFE63:
  56              		.size	DisplayWelcome, .-DisplayWelcome
  57              		.section	.text.DisplayTitle,"ax",%progbits
  58              		.align	2
  59              		.global	DisplayTitle
  60              		.thumb
  61              		.thumb_func
  62              		.type	DisplayTitle, %function
  63              	DisplayTitle:
  64              	.LFB64:
   8:display.c     **** 
   9:display.c     **** }
  10:display.c     **** 
  11:display.c     **** void DisplayTitle(){
  65              		.loc 1 11 0
  66              		.cfi_startproc
  67              		@ args = 0, pretend = 0, frame = 0
  68              		@ frame_needed = 0, uses_anonymous_args = 0
  69 0000 08B5     		push	{r3, lr}
  70              		.cfi_def_cfa_offset 8
  71              		.cfi_offset 3, -8
  72              		.cfi_offset 14, -4
  12:display.c     ****     LCD_ClearDisplay();
  73              		.loc 1 12 0
  74 0002 0120     		movs	r0, #1
  75 0004 FFF7FEFF 		bl	LCD_WriteControl
  76              	.LVL3:
  13:display.c     **** 	LCD_Position(0,0);
  77              		.loc 1 13 0
  78 0008 0021     		movs	r1, #0
  79 000a 0846     		mov	r0, r1
  80 000c FFF7FEFF 		bl	LCD_Position
  81              	.LVL4:
  14:display.c     **** 	LCD_PrintString("Contador: ");
  82              		.loc 1 14 0
  83 0010 0148     		ldr	r0, .L7
  84 0012 FFF7FEFF 		bl	LCD_PrintString
  85              	.LVL5:
  86 0016 08BD     		pop	{r3, pc}
  87              	.L8:
  88              		.align	2
  89              	.L7:
  90 0018 0C000000 		.word	.LC1
  91              		.cfi_endproc
  92              	.LFE64:
  93              		.size	DisplayTitle, .-DisplayTitle
  94              		.section	.text.DisplayCount,"ax",%progbits
  95              		.align	2
  96              		.global	DisplayCount
  97              		.thumb
  98              		.thumb_func
  99              		.type	DisplayCount, %function
 100              	DisplayCount:
ARM GAS  C:\Users\robin\AppData\Local\Temp\ccNNOVQD.s 			page 3


 101              	.LFB65:
  15:display.c     **** 	
  16:display.c     **** }
  17:display.c     **** 
  18:display.c     **** void DisplayCount(int count){
 102              		.loc 1 18 0
 103              		.cfi_startproc
 104              		@ args = 0, pretend = 0, frame = 0
 105              		@ frame_needed = 0, uses_anonymous_args = 0
 106              	.LVL6:
 107 0000 10B5     		push	{r4, lr}
 108              		.cfi_def_cfa_offset 8
 109              		.cfi_offset 4, -8
 110              		.cfi_offset 14, -4
 111 0002 0446     		mov	r4, r0
  19:display.c     **** 	LCD_Position(1,2);
 112              		.loc 1 19 0
 113 0004 0221     		movs	r1, #2
 114 0006 0120     		movs	r0, #1
 115              	.LVL7:
 116 0008 FFF7FEFF 		bl	LCD_Position
 117              	.LVL8:
  20:display.c     **** 	LCD_PrintNumber((uint16)count);
 118              		.loc 1 20 0
 119 000c A0B2     		uxth	r0, r4
 120 000e FFF7FEFF 		bl	LCD_PrintU32Number
 121              	.LVL9:
  21:display.c     **** 	LCD_PrintString(" ");
 122              		.loc 1 21 0
 123 0012 0248     		ldr	r0, .L11
 124 0014 FFF7FEFF 		bl	LCD_PrintString
 125              	.LVL10:
 126 0018 10BD     		pop	{r4, pc}
 127              	.LVL11:
 128              	.L12:
 129 001a 00BF     		.align	2
 130              	.L11:
 131 001c 18000000 		.word	.LC2
 132              		.cfi_endproc
 133              	.LFE65:
 134              		.size	DisplayCount, .-DisplayCount
 135              		.section	.rodata.str1.4,"aMS",%progbits,1
 136              		.align	2
 137              	.LC0:
 138 0000 50536F43 		.ascii	"PSoC Mola\000"
 138      204D6F6C 
 138      6100
 139 000a 0000     		.space	2
 140              	.LC1:
 141 000c 436F6E74 		.ascii	"Contador: \000"
 141      61646F72 
 141      3A2000
 142 0017 00       		.space	1
 143              	.LC2:
 144 0018 2000     		.ascii	" \000"
 145              		.text
 146              	.Letext0:
ARM GAS  C:\Users\robin\AppData\Local\Temp\ccNNOVQD.s 			page 4


 147              		.file 2 "c:\\program files (x86)\\cypress\\psoc creator\\4.2\\psoc creator\\import\\gnu\\arm\\5.4.
 148              		.file 3 "c:\\program files (x86)\\cypress\\psoc creator\\4.2\\psoc creator\\import\\gnu\\arm\\5.4.
 149              		.file 4 "Generated_Source\\PSoC5/cytypes.h"
 150              		.file 5 "Generated_Source\\PSoC5/LCD.h"
 151              		.file 6 "Generated_Source\\PSoC5/core_cm3.h"