ARM GAS  C:\Users\robin\AppData\Local\Temp\ccyorYlb.s 			page 1


   1              		.syntax unified
   2              		.cpu cortex-m3
   3              		.fpu softvfp
   4              		.eabi_attribute 20, 1
   5              		.eabi_attribute 21, 1
   6              		.eabi_attribute 23, 3
   7              		.eabi_attribute 24, 1
   8              		.eabi_attribute 25, 1
   9              		.eabi_attribute 26, 1
  10              		.eabi_attribute 30, 1
  11              		.eabi_attribute 34, 1
  12              		.eabi_attribute 18, 4
  13              		.thumb
  14              		.syntax unified
  15              		.file	"main.c"
  16              		.text
  17              	.Ltext0:
  18              		.cfi_sections	.debug_frame
  19              		.syntax unified
  20              		.global _printf_float
  21              		.thumb
  22              		.syntax unified
  23              		.section	.text.RxIsr,"ax",%progbits
  24              		.align	2
  25              		.global	RxIsr
  26              		.thumb
  27              		.thumb_func
  28              		.type	RxIsr, %function
  29              	RxIsr:
  30              	.LFB64:
  31              		.file 1 "main.c"
   1:main.c        **** /* ========================================
   2:main.c        ****  *
   3:main.c        ****  * Copyright YOUR COMPANY, THE YEAR
   4:main.c        ****  * All Rights Reserved
   5:main.c        ****  * UNPUBLISHED, LICENSED SOFTWARE.
   6:main.c        ****  *
   7:main.c        ****  * CONFIDENTIAL AND PROPRIETARY INFORMATION
   8:main.c        ****  * WHICH IS THE PROPERTY OF your company.
   9:main.c        ****  *
  10:main.c        ****  * ========================================
  11:main.c        **** */
  12:main.c        **** #include "project.h"
  13:main.c        **** #include <stdio.h>
  14:main.c        **** #include "common.h"
  15:main.c        **** 
  16:main.c        **** #if defined (__GNUC__)
  17:main.c        ****     asm (".global _printf_float");
  18:main.c        **** #endif
  19:main.c        **** 
  20:main.c        **** uint8 errorStatus = 0u;
  21:main.c        **** CY_ISR(RxIsr)
  22:main.c        **** {
  32              		.loc 1 22 0
  33              		.cfi_startproc
  34              		@ args = 0, pretend = 0, frame = 8
  35              		@ frame_needed = 0, uses_anonymous_args = 0
ARM GAS  C:\Users\robin\AppData\Local\Temp\ccyorYlb.s 			page 2


  36 0000 10B5     		push	{r4, lr}
  37              		.cfi_def_cfa_offset 8
  38              		.cfi_offset 4, -8
  39              		.cfi_offset 14, -4
  40 0002 82B0     		sub	sp, sp, #8
  41              		.cfi_def_cfa_offset 16
  42              	.L8:
  23:main.c        ****     uint8 rxStatus;         
  24:main.c        ****     uint8 rxData;           
  25:main.c        ****     
  26:main.c        ****     do
  27:main.c        ****     {
  28:main.c        ****         /* Read receiver status register */
  29:main.c        ****         rxStatus = UART_RXSTATUS_REG;
  43              		.loc 1 29 0
  44 0004 214B     		ldr	r3, .L10
  45 0006 1B78     		ldrb	r3, [r3]	@ zero_extendqisi2
  46 0008 DBB2     		uxtb	r3, r3
  47              	.LVL0:
  30:main.c        **** 
  31:main.c        ****         if((rxStatus & (UART_RX_STS_BREAK      | UART_RX_STS_PAR_ERROR |
  48              		.loc 1 31 0
  49 000a 13F01E0F 		tst	r3, #30
  50 000e 05D0     		beq	.L2
  32:main.c        ****                         UART_RX_STS_STOP_ERROR | UART_RX_STS_OVERRUN)) != 0u)
  33:main.c        ****         {
  34:main.c        ****             /* ERROR handling. */
  35:main.c        ****             errorStatus |= rxStatus & ( UART_RX_STS_BREAK      | UART_RX_STS_PAR_ERROR | 
  51              		.loc 1 35 0
  52 0010 1F48     		ldr	r0, .L10+4
  53 0012 03F01E02 		and	r2, r3, #30
  54 0016 0178     		ldrb	r1, [r0]	@ zero_extendqisi2
  55 0018 0A43     		orrs	r2, r2, r1
  56 001a 0270     		strb	r2, [r0]
  57              	.L2:
  58 001c 03F02003 		and	r3, r3, #32
  59              	.LVL1:
  36:main.c        ****                                         UART_RX_STS_STOP_ERROR | UART_RX_STS_OVERRUN);
  37:main.c        ****         }
  38:main.c        ****         
  39:main.c        ****         if((rxStatus & UART_RX_STS_FIFO_NOTEMPTY) != 0u)
  60              		.loc 1 39 0
  61 0020 03F0FF04 		and	r4, r3, #255
  62 0024 6BB3     		cbz	r3, .L3
  40:main.c        ****         {
  41:main.c        ****             /* Read data from the RX data register */
  42:main.c        ****             rxData = UART_RXDATA_REG;
  63              		.loc 1 42 0
  64 0026 1B4B     		ldr	r3, .L10+8
  65 0028 1B78     		ldrb	r3, [r3]	@ zero_extendqisi2
  66 002a DBB2     		uxtb	r3, r3
  67 002c 8DF80730 		strb	r3, [sp, #7]
  43:main.c        ****             if(errorStatus == 0u)
  68              		.loc 1 43 0
  69 0030 174A     		ldr	r2, .L10+4
  70 0032 1278     		ldrb	r2, [r2]	@ zero_extendqisi2
  71 0034 2ABB     		cbnz	r2, .L3
ARM GAS  C:\Users\robin\AppData\Local\Temp\ccyorYlb.s 			page 3


  44:main.c        ****             {
  45:main.c        ****                 /* Send data backward */
  46:main.c        ****                 UART_TXDATA_REG = rxData;
  72              		.loc 1 46 0
  73 0036 184A     		ldr	r2, .L10+12
  74 0038 1370     		strb	r3, [r2]
  47:main.c        **** 
  48:main.c        ****                 if(rxData == 'd'){
  75              		.loc 1 48 0
  76 003a 9DF80730 		ldrb	r3, [sp, #7]	@ zero_extendqisi2
  77 003e 642B     		cmp	r3, #100
  78 0040 03D1     		bne	.L4
  49:main.c        ****                     Clock_1_SetSource(CYCLK_SRC_SEL_IMO);
  79              		.loc 1 49 0
  80 0042 0120     		movs	r0, #1
  81 0044 FFF7FEFF 		bl	Clock_1_SetSourceRegister
  82              	.LVL2:
  83 0048 13E0     		b	.L5
  84              	.L4:
  50:main.c        ****                 }else if(rxData == 'u'){
  85              		.loc 1 50 0
  86 004a 752B     		cmp	r3, #117
  87 004c 03D1     		bne	.L6
  51:main.c        ****                     Clock_1_SetSource(CYCLK_SRC_SEL_PLL);
  88              		.loc 1 51 0
  89 004e 0420     		movs	r0, #4
  90 0050 FFF7FEFF 		bl	Clock_1_SetSourceRegister
  91              	.LVL3:
  92 0054 0DE0     		b	.L5
  93              	.L6:
  52:main.c        ****                 }else if(rxData == 'p'){
  94              		.loc 1 52 0
  95 0056 702B     		cmp	r3, #112
  96 0058 07D1     		bne	.L7
  53:main.c        ****                     generadorPulsosPWM_Stop();
  97              		.loc 1 53 0
  98 005a FFF7FEFF 		bl	generadorPulsosPWM_Stop
  99              	.LVL4:
  54:main.c        ****                     generadorPulsosPWM_Sleep();
 100              		.loc 1 54 0
 101 005e FFF7FEFF 		bl	generadorPulsosPWM_Sleep
 102              	.LVL5:
  55:main.c        ****                     UART_PutString("Vamos a parar el led");
 103              		.loc 1 55 0
 104 0062 0E48     		ldr	r0, .L10+16
 105 0064 FFF7FEFF 		bl	UART_PutString
 106              	.LVL6:
 107 0068 03E0     		b	.L5
 108              	.L7:
  56:main.c        ****                 }else if(rxData == 'a'){
 109              		.loc 1 56 0
 110 006a 612B     		cmp	r3, #97
 111 006c 01D1     		bne	.L5
  57:main.c        ****                     generadorPulsosPWM_Start();   
 112              		.loc 1 57 0
 113 006e FFF7FEFF 		bl	generadorPulsosPWM_Start
 114              	.LVL7:
ARM GAS  C:\Users\robin\AppData\Local\Temp\ccyorYlb.s 			page 4


 115              	.L5:
  58:main.c        ****                 }
  59:main.c        ****                 Pantalla_Position(1,0);
 116              		.loc 1 59 0
 117 0072 0021     		movs	r1, #0
 118 0074 0120     		movs	r0, #1
 119 0076 FFF7FEFF 		bl	Pantalla_Position
 120              	.LVL8:
  60:main.c        ****                 Pantalla_PrintString((const char8 *)&rxData);
 121              		.loc 1 60 0
 122 007a 0DF10700 		add	r0, sp, #7
 123 007e FFF7FEFF 		bl	Pantalla_PrintString
 124              	.LVL9:
 125              	.L3:
  61:main.c        ****                 
  62:main.c        ****             }
  63:main.c        ****         }
  64:main.c        ****     }while((rxStatus & UART_RX_STS_FIFO_NOTEMPTY) != 0u);
 126              		.loc 1 64 0
 127 0082 002C     		cmp	r4, #0
 128 0084 BED1     		bne	.L8
  65:main.c        **** 
  66:main.c        **** }
 129              		.loc 1 66 0
 130 0086 02B0     		add	sp, sp, #8
 131              		.cfi_def_cfa_offset 8
 132              		@ sp needed
 133 0088 10BD     		pop	{r4, pc}
 134              	.L11:
 135 008a 00BF     		.align	2
 136              	.L10:
 137 008c 68650040 		.word	1073767784
 138 0090 00000000 		.word	.LANCHOR0
 139 0094 48640040 		.word	1073767496
 140 0098 48650040 		.word	1073767752
 141 009c 00000000 		.word	.LC0
 142              		.cfi_endproc
 143              	.LFE64:
 144              		.size	RxIsr, .-RxIsr
 145              		.section	.text.main,"ax",%progbits
 146              		.align	2
 147              		.global	main
 148              		.thumb
 149              		.thumb_func
 150              		.type	main, %function
 151              	main:
 152              	.LFB65:
  67:main.c        **** 
  68:main.c        **** int main(void)
  69:main.c        **** {
 153              		.loc 1 69 0
 154              		.cfi_startproc
 155              		@ Volatile: function does not return.
 156              		@ args = 0, pretend = 0, frame = 0
 157              		@ frame_needed = 0, uses_anonymous_args = 0
 158 0000 08B5     		push	{r3, lr}
 159              		.cfi_def_cfa_offset 8
ARM GAS  C:\Users\robin\AppData\Local\Temp\ccyorYlb.s 			page 5


 160              		.cfi_offset 3, -8
 161              		.cfi_offset 14, -4
  70:main.c        **** 
  71:main.c        **** 
  72:main.c        ****     #if(INTERRUPT_CODE_ENABLED == ENABLED)
  73:main.c        ****     UART_isr_StartEx(RxIsr);
 162              		.loc 1 73 0
 163 0002 0A48     		ldr	r0, .L15
 164 0004 FFF7FEFF 		bl	UART_isr_StartEx
 165              	.LVL10:
  74:main.c        ****     #endif /* INTERRUPT_CODE_ENABLED == ENABLED */
  75:main.c        ****         
  76:main.c        ****     CyGlobalIntEnable;      /* Enable global interrupts. */
 166              		.loc 1 76 0
 167              		.syntax unified
 168              	@ 76 "main.c" 1
 169 0008 62B6     		CPSIE   i
 170              	@ 0 "" 2
  77:main.c        ****         
  78:main.c        ****     
  79:main.c        ****     generadorPulsosPWM_Start();
 171              		.loc 1 79 0
 172              		.thumb
 173              		.syntax unified
 174 000a FFF7FEFF 		bl	generadorPulsosPWM_Start
 175              	.LVL11:
  80:main.c        ****     
  81:main.c        ****     CyGlobalIntEnable; /* Enable global interrupts. */
 176              		.loc 1 81 0
 177              		.syntax unified
 178              	@ 81 "main.c" 1
 179 000e 62B6     		CPSIE   i
 180              	@ 0 "" 2
  82:main.c        ****     
  83:main.c        ****     Pantalla_Start();
 181              		.loc 1 83 0
 182              		.thumb
 183              		.syntax unified
 184 0010 FFF7FEFF 		bl	Pantalla_Start
 185              	.LVL12:
  84:main.c        ****     UART_Start();
 186              		.loc 1 84 0
 187 0014 FFF7FEFF 		bl	UART_Start
 188              	.LVL13:
  85:main.c        ****     Pantalla_ClearDisplay();
 189              		.loc 1 85 0
 190 0018 0120     		movs	r0, #1
 191 001a FFF7FEFF 		bl	Pantalla_WriteControl
 192              	.LVL14:
  86:main.c        ****     Pantalla_PrintString("Bienvenido");
 193              		.loc 1 86 0
 194 001e 0448     		ldr	r0, .L15+4
 195 0020 FFF7FEFF 		bl	Pantalla_PrintString
 196              	.LVL15:
  87:main.c        ****     
  88:main.c        ****     generadorPulsosPWM_WriteCompare(90);
 197              		.loc 1 88 0
ARM GAS  C:\Users\robin\AppData\Local\Temp\ccyorYlb.s 			page 6


 198 0024 5A20     		movs	r0, #90
 199 0026 FFF7FEFF 		bl	generadorPulsosPWM_WriteCompare
 200              	.LVL16:
 201              	.L13:
 202 002a FEE7     		b	.L13
 203              	.L16:
 204              		.align	2
 205              	.L15:
 206 002c 00000000 		.word	RxIsr
 207 0030 18000000 		.word	.LC1
 208              		.cfi_endproc
 209              	.LFE65:
 210              		.size	main, .-main
 211              		.global	errorStatus
 212              		.section	.rodata.str1.4,"aMS",%progbits,1
 213              		.align	2
 214              	.LC0:
 215 0000 56616D6F 		.ascii	"Vamos a parar el led\000"
 215      73206120 
 215      70617261 
 215      7220656C 
 215      206C6564 
 216 0015 000000   		.space	3
 217              	.LC1:
 218 0018 4269656E 		.ascii	"Bienvenido\000"
 218      76656E69 
 218      646F00
 219              		.bss
 220              		.set	.LANCHOR0,. + 0
 221              		.type	errorStatus, %object
 222              		.size	errorStatus, 1
 223              	errorStatus:
 224 0000 00       		.space	1
 225              		.text
 226              	.Letext0:
 227              		.file 2 "c:\\program files (x86)\\cypress\\psoc creator\\4.2\\psoc creator\\import\\gnu\\arm\\5.4.
 228              		.file 3 "c:\\program files (x86)\\cypress\\psoc creator\\4.2\\psoc creator\\import\\gnu\\arm\\5.4.
 229              		.file 4 "Generated_Source\\PSoC5/cytypes.h"
 230              		.file 5 "Generated_Source\\PSoC5/core_cm3.h"
 231              		.file 6 "Generated_Source\\PSoC5/Clock_1.h"
 232              		.file 7 "Generated_Source\\PSoC5/generadorPulsosPWM.h"
 233              		.file 8 "Generated_Source\\PSoC5/UART.h"
 234              		.file 9 "Generated_Source\\PSoC5/Pantalla.h"
 235              		.file 10 "Generated_Source\\PSoC5/UART_isr.h"